;;; FLAGS: -dv
(module
  (global $g i32)
  (func $f (param i32 i32) (result i32)
    (store_global $g (i32.add (load_global $g) (i32.const 1)))
    (i32.add (get_local 0) (get_local 1)))
  (export "f" $f))
(;; STDOUT ;;;
0000000: 03                                         ; WASM_BINARY_SECTION_GLOBALS
0000001: 01                                         ; num globals
; global header 0
0000002: 0000 0000                                  ; global name offset
0000006: 04                                         ; global mem type
0000007: 00                                         ; export global
0000008: 01                                         ; WASM_BINARY_SECTION_SIGNATURES
0000009: 01                                         ; num signatures
; signature 0
000000a: 02                                         ; num params
000000b: 01                                         ; result_type
000000c: 01                                         ; param type
000000d: 01                                         ; param type
000000e: 02                                         ; WASM_BINARY_SECTION_FUNCTIONS
000000f: 01                                         ; num functions
; function 0
0000010: 00                                         ; func flags
0000011: 0000                                       ; func signature index
0000013: 0000                                       ; func body size
0000015: 11                                         ; OPCODE_STORE_GLOBAL
0000016: 00                                         ; global index
0000017: 40                                         ; OPCODE_I32_ADD
0000018: 10                                         ; OPCODE_LOAD_GLOBAL
0000019: 00                                         ; global index
000001a: 09                                         ; OPCODE_I8_CONST
000001b: 01                                         ; u8 literal
000001c: 40                                         ; OPCODE_I32_ADD
000001d: 0e                                         ; OPCODE_GET_LOCAL
000001e: 00                                         ; remapped local index
000001f: 0e                                         ; OPCODE_GET_LOCAL
0000020: 01                                         ; remapped local index
0000013: 0c00                                       ; FIXUP func body size
0000021: 09                                         ; WASM_BINARY_SECTION_EXPORTS
0000022: 01                                         ; num exports
0000023: 0000                                       ; export func index
0000025: 0000 0000                                  ; export name offset
0000029: 06                                         ; WASM_BINARY_SECTION_END
; export 0
0000025: 2a00 0000                                  ; FIXUP func name offset
000002a: 66                                         ; export name
000002b: 00                                         ; \0
;; dump
0000000: 0301 0000 0000 0400 0101 0201 0101 0201  
0000010: 0000 000c 0011 0040 1000 0901 400e 000e  
0000020: 0109 0100 002a 0000 0006 6600            
;;; STDOUT ;;)
