;;; FLAGS: -dv
(module
  (memory 1)
  (func $f (param i32 i32) (result i32)
    (i32.store (i32.const 0) (i32.add (i32.load (i32.const 0)) (i32.const 1)))
    (i32.add (get_local 0) (get_local 1)))
  (export "f" $f))
(;; STDOUT ;;;
0000000: 0061 736d                                  ; WASM_BINARY_MAGIC
0000004: 0a00 0000                                  ; WASM_BINARY_VERSION
0000008: 00                                         ; WASM_BINARY_SECTION_MEMORY
0000009: 01                                         ; min mem pages
000000a: 01                                         ; max mem pages
000000b: 00                                         ; export mem
000000c: 01                                         ; WASM_BINARY_SECTION_SIGNATURES
000000d: 01                                         ; num signatures
; signature 0
000000e: 02                                         ; num params
000000f: 01                                         ; result_type
0000010: 01                                         ; param type
0000011: 01                                         ; param type
0000012: 0a                                         ; WASM_BINARY_SECTION_FUNCTION_SIGNATURES
0000013: 01                                         ; num functions
0000014: 00                                         ; function 0 signature index
0000015: 0b                                         ; WASM_BINARY_SECTION_FUNCTION_BODIES
0000016: 01                                         ; num functions
; function body 0
0000017: 00                                         ; func body size (guess)
0000018: 00                                         ; local decl count
0000019: 33                                         ; OPCODE_I32_STORE_MEM
000001a: 02                                         ; alignment
000001b: 00                                         ; store offset
000001c: 0a                                         ; OPCODE_I32_CONST
000001d: 00                                         ; i32 literal
000001e: 40                                         ; OPCODE_I32_ADD
000001f: 2a                                         ; OPCODE_I32_LOAD_MEM
0000020: 02                                         ; alignment
0000021: 00                                         ; load offset
0000022: 0a                                         ; OPCODE_I32_CONST
0000023: 00                                         ; i32 literal
0000024: 0a                                         ; OPCODE_I32_CONST
0000025: 01                                         ; i32 literal
0000026: 40                                         ; OPCODE_I32_ADD
0000027: 0e                                         ; OPCODE_GET_LOCAL
0000028: 00                                         ; remapped local index
0000029: 0e                                         ; OPCODE_GET_LOCAL
000002a: 01                                         ; remapped local index
0000017: 13                                         ; FIXUP func body size
000002b: 09                                         ; WASM_BINARY_SECTION_EXPORTS
000002c: 01                                         ; num exports
000002d: 00                                         ; export func index
000002e: 01                                         ; string length
000002f: 66                                         ; export name
0000030: 06                                         ; WASM_BINARY_SECTION_END
;; dump
0000000: 0061 736d 0a00 0000 0001 0100 0101 0201  
0000010: 0101 0a01 000b 0113 0033 0200 0a00 402a  
0000020: 0200 0a00 0a01 400e 000e 0109 0100 0166  
0000030: 06                                       
;;; STDOUT ;;)
