;;; FLAGS: -dv
(module
  (global $g i32)
  (func $f (param i32 i32) (result i32)
    (store_global $g (i32.add (load_global $g) (i32.const 1)))
    (i32.add (get_local 0) (get_local 1)))
  (export "f" $f))
(;; STDOUT ;;;
0000000: 00                                         ; WASM_SECTION_MEMORY
0000001: 00                                         ; min mem size log 2
0000002: 00                                         ; max mem size log 2
0000003: 01                                         ; export mem
0000004: 03                                         ; WASM_SECTION_GLOBALS
0000005: 01                                         ; num globals
; global header 0
0000006: 0000 0000                                  ; global name offset
000000a: 04                                         ; global mem type
000000b: 00                                         ; export global
000000c: 01                                         ; WASM_SECTION_SIGNATURES
000000d: 01                                         ; num signatures
; signature 0
000000e: 02                                         ; num args
000000f: 01                                         ; result_type
0000010: 01                                         ; arg type
0000011: 01                                         ; arg type
0000012: 02                                         ; WASM_SECTION_FUNCTIONS
0000013: 01                                         ; num functions
; function 0
0000014: 01                                         ; func flags
0000015: 0000                                       ; func signature index
0000017: 0000 0000                                  ; func name offset
000001b: 0000                                       ; func body size
000001d: 11                                         ; OPCODE_SET_GLOBAL
000001e: 00                                         ; global index
000001f: 40                                         ; OPCODE_I32_ADD
0000020: 10                                         ; OPCODE_GET_GLOBAL
0000021: 00                                         ; global index
0000022: 09                                         ; OPCODE_I8_CONST
0000023: 01                                         ; u8 literal
0000024: 40                                         ; OPCODE_I32_ADD
0000025: 0e                                         ; OPCODE_GET_LOCAL
0000026: 00                                         ; remapped local index
0000027: 0e                                         ; OPCODE_GET_LOCAL
0000028: 01                                         ; remapped local index
000001b: 0c00                                       ; FIXUP func body size
0000029: 06                                         ; WASM_SECTION_END
; names
0000017: 2a00 0000                                  ; FIXUP func name offset
0000014: 09                                         ; FIXUP func exported
000002a: 6600                                       ; export name
0000000: 0000 0001 0301 0000 0000 0400 0101 0201  ................
0000010: 0101 0201 0900 002a 0000 000c 0011 0040  .......*.......@
0000020: 1000 0901 400e 000e 0106 6600            ....@.....f.
;;; STDOUT ;;)
