;;; FLAGS: -dv
(module
  (memory 1)
  (func $f (param i32 i32) (result i32)
    (i32.store (i32.const 0) (i32.add (i32.load (i32.const 0)) (i32.const 1)))
    (i32.add (get_local 0) (get_local 1)))
  (export "f" $f))
(;; STDOUT ;;;
0000000: 0061 736d                                  ; WASM_BINARY_MAGIC
0000004: 0a00 0000                                  ; WASM_BINARY_VERSION
0000008: 00                                         ; WASM_BINARY_SECTION_MEMORY
0000009: 01                                         ; min mem pages
000000a: 01                                         ; max mem pages
000000b: 01                                         ; export mem
000000c: 01                                         ; WASM_BINARY_SECTION_SIGNATURES
000000d: 01                                         ; num signatures
; signature 0
000000e: 02                                         ; num params
000000f: 01                                         ; result_type
0000010: 01                                         ; param type
0000011: 01                                         ; param type
0000012: 02                                         ; WASM_BINARY_SECTION_FUNCTIONS
0000013: 01                                         ; num functions
; function 0
0000014: 00                                         ; func flags
0000015: 0000                                       ; func signature index
0000017: 0000                                       ; func body size
0000019: 00                                         ; local decl count
000001a: 33                                         ; OPCODE_I32_STORE_MEM
000001b: 00                                         ; store access byte
000001c: 0a                                         ; OPCODE_I32_CONST
000001d: 00                                         ; i32 literal
000001e: 40                                         ; OPCODE_I32_ADD
000001f: 2a                                         ; OPCODE_I32_LOAD_MEM
0000020: 00                                         ; load access byte
0000021: 0a                                         ; OPCODE_I32_CONST
0000022: 00                                         ; i32 literal
0000023: 0a                                         ; OPCODE_I32_CONST
0000024: 01                                         ; i32 literal
0000025: 40                                         ; OPCODE_I32_ADD
0000026: 0e                                         ; OPCODE_GET_LOCAL
0000027: 00                                         ; remapped local index
0000028: 0e                                         ; OPCODE_GET_LOCAL
0000029: 01                                         ; remapped local index
0000017: 1100                                       ; FIXUP func body size
000002a: 09                                         ; WASM_BINARY_SECTION_EXPORTS
000002b: 01                                         ; num exports
000002c: 00                                         ; export func index
000002d: 0000 0000                                  ; export name offset
0000031: 06                                         ; WASM_BINARY_SECTION_END
; export 0
000002d: 3200 0000                                  ; FIXUP func name offset
0000032: 66                                         ; export name
0000033: 00                                         ; \0
;; dump
0000000: 0061 736d 0a00 0000 0001 0101 0101 0201  
0000010: 0101 0201 0000 0011 0000 3300 0a00 402a  
0000020: 000a 000a 0140 0e00 0e01 0901 0032 0000  
0000030: 0006 6600                                
;;; STDOUT ;;)
