;;; FLAGS: -dv
(module
  (memory 1)
  (func $f (param i32 i32) (result i32)
    (i32.store (i32.const 0) (i32.add (i32.load (i32.const 0)) (i32.const 1)))
    (i32.add (get_local 0) (get_local 1)))
  (export "f" $f))
(;; STDOUT ;;;
0000000: 0061 736d                                  ; WASM_BINARY_MAGIC
0000004: 0c00 0000                                  ; WASM_BINARY_VERSION
; section "type"
0000008: 04                                         ; string length
0000009: 7479 7065                                  ; section id: "type"
000000d: 00                                         ; section size (guess)
000000e: 01                                         ; num types
; type 0
000000f: 40                                         ; function form
0000010: 02                                         ; num params
0000011: 01                                         ; param type
0000012: 01                                         ; param type
0000013: 01                                         ; num results
0000014: 01                                         ; result_type
000000d: 07                                         ; FIXUP section size
; section "function"
0000015: 08                                         ; string length
0000016: 6675 6e63 7469 6f6e                        ; section id: "function"
000001e: 00                                         ; section size (guess)
000001f: 01                                         ; num functions
0000020: 00                                         ; function 0 signature index
000001e: 02                                         ; FIXUP section size
; section "memory"
0000021: 06                                         ; string length
0000022: 6d65 6d6f 7279                             ; section id: "memory"
0000028: 00                                         ; section size (guess)
0000029: 00                                         ; memory flags
000002a: 01                                         ; memory initial pages
0000028: 02                                         ; FIXUP section size
; section "export"
000002b: 06                                         ; string length
000002c: 6578 706f 7274                             ; section id: "export"
0000032: 00                                         ; section size (guess)
0000033: 01                                         ; num exports
0000034: 00                                         ; export func index
0000035: 01                                         ; string length
0000036: 66                                       f  ; export name
0000032: 04                                         ; FIXUP section size
; section "code"
0000037: 04                                         ; string length
0000038: 636f 6465                                  ; section id: "code"
000003c: 00                                         ; section size (guess)
000003d: 01                                         ; num functions
; function body 0
000003e: 00                                         ; func body size (guess)
000003f: 00                                         ; local decl count
0000040: 10                                         ; OPCODE_I32_CONST
0000041: 00                                         ; i32 literal
0000042: 10                                         ; OPCODE_I32_CONST
0000043: 00                                         ; i32 literal
0000044: 2a                                         ; OPCODE_I32_LOAD
0000045: 02                                         ; alignment
0000046: 00                                         ; load offset
0000047: 10                                         ; OPCODE_I32_CONST
0000048: 01                                         ; i32 literal
0000049: 40                                         ; OPCODE_I32_ADD
000004a: 33                                         ; OPCODE_I32_STORE
000004b: 02                                         ; alignment
000004c: 00                                         ; store offset
000004d: 14                                         ; OPCODE_GET_LOCAL
000004e: 00                                         ; local index
000004f: 14                                         ; OPCODE_GET_LOCAL
0000050: 01                                         ; local index
0000051: 40                                         ; OPCODE_I32_ADD
000003e: 13                                         ; FIXUP func body size
000003c: 15                                         ; FIXUP section size
;; dump
0000000: 0061 736d 0c00 0000 0474 7970 6507 0140  
0000010: 0201 0101 0108 6675 6e63 7469 6f6e 0201  
0000020: 0006 6d65 6d6f 7279 0200 0106 6578 706f  
0000030: 7274 0401 0001 6604 636f 6465 1501 1300  
0000040: 1000 1000 2a02 0010 0140 3302 0014 0014  
0000050: 0140                                     
;;; STDOUT ;;)
