;;; FLAGS: -dv
(module
  (memory 1)
  (func $f (param i32 i32) (result i32)
    (i32.store (i32.const 0) (i32.add (i32.load (i32.const 0)) (i32.const 1)))
    (i32.add (get_local 0) (get_local 1)))
  (export "f" $f))
(;; STDOUT ;;;
0000000: 0061 736d                                  ; WASM_BINARY_MAGIC
0000004: 0b00 0000                                  ; WASM_BINARY_VERSION
; section "type"
0000008: 04                                         ; string length
0000009: 7479 7065                                  ; section id: "type"
000000d: 00                                         ; section size (guess)
000000e: 01                                         ; num types
; type 0
000000f: 40                                         ; function form
0000010: 02                                         ; num params
0000011: 01                                         ; param type
0000012: 01                                         ; param type
0000013: 01                                         ; num results
0000014: 01                                         ; result_type
000000d: 07                                         ; FIXUP section size
; section "function"
0000015: 08                                         ; string length
0000016: 6675 6e63 7469 6f6e                        ; section id: "function"
000001e: 00                                         ; section size (guess)
000001f: 01                                         ; num functions
0000020: 00                                         ; function 0 signature index
000001e: 02                                         ; FIXUP section size
; section "memory"
0000021: 06                                         ; string length
0000022: 6d65 6d6f 7279                             ; section id: "memory"
0000028: 00                                         ; section size (guess)
0000029: 01                                         ; min mem pages
000002a: 01                                         ; max mem pages
000002b: 00                                         ; export mem
0000028: 03                                         ; FIXUP section size
; section "export"
000002c: 06                                         ; string length
000002d: 6578 706f 7274                             ; section id: "export"
0000033: 00                                         ; section size (guess)
0000034: 01                                         ; num exports
0000035: 00                                         ; export func index
0000036: 01                                         ; string length
0000037: 66                                       f  ; export name
0000033: 04                                         ; FIXUP section size
; section "code"
0000038: 04                                         ; string length
0000039: 636f 6465                                  ; section id: "code"
000003d: 00                                         ; section size (guess)
000003e: 01                                         ; num functions
; function body 0
000003f: 00                                         ; func body size (guess)
0000040: 00                                         ; local decl count
0000041: 10                                         ; OPCODE_I32_CONST
0000042: 00                                         ; i32 literal
0000043: 10                                         ; OPCODE_I32_CONST
0000044: 00                                         ; i32 literal
0000045: 2a                                         ; OPCODE_I32_LOAD
0000046: 02                                         ; alignment
0000047: 00                                         ; load offset
0000048: 10                                         ; OPCODE_I32_CONST
0000049: 01                                         ; i32 literal
000004a: 40                                         ; OPCODE_I32_ADD
000004b: 33                                         ; OPCODE_I32_STORE
000004c: 02                                         ; alignment
000004d: 00                                         ; store offset
000004e: 14                                         ; OPCODE_GET_LOCAL
000004f: 00                                         ; local index
0000050: 14                                         ; OPCODE_GET_LOCAL
0000051: 01                                         ; local index
0000052: 40                                         ; OPCODE_I32_ADD
000003f: 13                                         ; FIXUP func body size
000003d: 15                                         ; FIXUP section size
;; dump
0000000: 0061 736d 0b00 0000 0474 7970 6507 0140  
0000010: 0201 0101 0108 6675 6e63 7469 6f6e 0201  
0000020: 0006 6d65 6d6f 7279 0301 0100 0665 7870  
0000030: 6f72 7404 0100 0166 0463 6f64 6515 0113  
0000040: 0010 0010 002a 0200 1001 4033 0200 1400  
0000050: 1401 40                                  
;;; STDOUT ;;)
