;;; FLAGS: -dv
(module
  (func
    (i32.add
      (i32.sub
        (i32.mul
          (i32.div_s
            (i32.div_u
              (i32.rem_s
                (i32.rem_u
                  (i32.and
                    (i32.or
                      (i32.xor
                        (i32.shl
                          (i32.shr_u
                            (i32.shr_s
                              (i32.const 0)
                              (i32.const 0))
                            (i32.const 0))
                          (i32.const 0))
                        (i32.const 0))
                      (i32.const 0))
                    (i32.const 0))
                  (i32.const 0))
                (i32.const 0))
              (i32.const 0))
            (i32.const 0))
          (i32.const 0))
        (i32.const 0))
      (i32.const 0))

    (i64.add
      (i64.sub
        (i64.mul
          (i64.div_s
            (i64.div_u
              (i64.rem_s
                (i64.rem_u
                  (i64.and
                    (i64.or
                      (i64.xor
                        (i64.shl
                          (i64.shr_u
                            (i64.shr_s
                              (i64.const 0)
                              (i64.const 0))
                            (i64.const 0))
                          (i64.const 0))
                        (i64.const 0))
                      (i64.const 0))
                    (i64.const 0))
                  (i64.const 0))
                (i64.const 0))
              (i64.const 0))
            (i64.const 0))
          (i64.const 0))
        (i64.const 0))
      (i64.const 0))

    (f32.add
      (f32.sub
        (f32.mul
          (f32.div
            (f32.min
              (f32.max
                (f32.copysign
                  (f32.const 0)
                  (f32.const 0))
                (f32.const 0))
              (f32.const 0))
            (f32.const 0))
          (f32.const 0))
        (f32.const 0))
      (f32.const 0))

    (f64.add
      (f64.sub
        (f64.mul
          (f64.div
            (f64.min
              (f64.max
                (f64.copysign
                  (f64.const 0)
                  (f64.const 0))
                (f64.const 0))
              (f64.const 0))
            (f64.const 0))
          (f64.const 0))
        (f64.const 0))
      (f64.const 0))

))

(;; STDOUT ;;;
0000000: 00                                         ; WASM_SECTION_MEMORY
0000001: 00                                         ; min mem size log 2
0000002: 00                                         ; max mem size log 2
0000003: 01                                         ; export mem
0000004: 01                                         ; WASM_SECTION_SIGNATURES
0000005: 01                                         ; num signatures
; function signature 0
0000006: 00                                         ; num args
0000007: 00                                         ; result_type
0000008: 02                                         ; WASM_SECTION_FUNCTIONS
0000009: 01                                         ; num functions
; function 0
000000a: 01                                         ; func flags
000000b: 0000                                       ; func signature index
000000d: 0000 0000                                  ; func name offset
0000011: 0000                                       ; func body size
0000013: 40                                         ; OPCODE_I32_ADD
0000014: 41                                         ; OPCODE_I32_SUB
0000015: 42                                         ; OPCODE_I32_MUL
0000016: 43                                         ; OPCODE_I32_SDIV
0000017: 44                                         ; OPCODE_I32_UDIV
0000018: 45                                         ; OPCODE_I32_SREM
0000019: 46                                         ; OPCODE_I32_UREM
000001a: 47                                         ; OPCODE_I32_AND
000001b: 48                                         ; OPCODE_I32_OR
000001c: 49                                         ; OPCODE_I32_XOR
000001d: 4a                                         ; OPCODE_I32_SHL
000001e: 4b                                         ; OPCODE_I32_SHR
000001f: 4c                                         ; OPCODE_I32_SAR
0000020: 10                                         ; OPCODE_I8_CONST
0000021: 00                                         ; u8 literal
0000022: 10                                         ; OPCODE_I8_CONST
0000023: 00                                         ; u8 literal
0000024: 10                                         ; OPCODE_I8_CONST
0000025: 00                                         ; u8 literal
0000026: 10                                         ; OPCODE_I8_CONST
0000027: 00                                         ; u8 literal
0000028: 10                                         ; OPCODE_I8_CONST
0000029: 00                                         ; u8 literal
000002a: 10                                         ; OPCODE_I8_CONST
000002b: 00                                         ; u8 literal
000002c: 10                                         ; OPCODE_I8_CONST
000002d: 00                                         ; u8 literal
000002e: 10                                         ; OPCODE_I8_CONST
000002f: 00                                         ; u8 literal
0000030: 10                                         ; OPCODE_I8_CONST
0000031: 00                                         ; u8 literal
0000032: 10                                         ; OPCODE_I8_CONST
0000033: 00                                         ; u8 literal
0000034: 10                                         ; OPCODE_I8_CONST
0000035: 00                                         ; u8 literal
0000036: 10                                         ; OPCODE_I8_CONST
0000037: 00                                         ; u8 literal
0000038: 10                                         ; OPCODE_I8_CONST
0000039: 00                                         ; u8 literal
000003a: 10                                         ; OPCODE_I8_CONST
000003b: 00                                         ; u8 literal
000003c: 5b                                         ; OPCODE_I64_ADD
000003d: 5c                                         ; OPCODE_I64_SUB
000003e: 5d                                         ; OPCODE_I64_MUL
000003f: 5e                                         ; OPCODE_I64_SDIV
0000040: 5f                                         ; OPCODE_I64_UDIV
0000041: 60                                         ; OPCODE_I64_SREM
0000042: 61                                         ; OPCODE_I64_UREM
0000043: 62                                         ; OPCODE_I64_AND
0000044: 63                                         ; OPCODE_I64_OR
0000045: 64                                         ; OPCODE_I64_XOR
0000046: 65                                         ; OPCODE_I64_SHL
0000047: 66                                         ; OPCODE_I64_SHR
0000048: 67                                         ; OPCODE_I64_SAR
0000049: 12                                         ; OPCODE_I64_CONST
000004a: 0000 0000 0000 0000                        ; u64 literal
0000052: 12                                         ; OPCODE_I64_CONST
0000053: 0000 0000 0000 0000                        ; u64 literal
000005b: 12                                         ; OPCODE_I64_CONST
000005c: 0000 0000 0000 0000                        ; u64 literal
0000064: 12                                         ; OPCODE_I64_CONST
0000065: 0000 0000 0000 0000                        ; u64 literal
000006d: 12                                         ; OPCODE_I64_CONST
000006e: 0000 0000 0000 0000                        ; u64 literal
0000076: 12                                         ; OPCODE_I64_CONST
0000077: 0000 0000 0000 0000                        ; u64 literal
000007f: 12                                         ; OPCODE_I64_CONST
0000080: 0000 0000 0000 0000                        ; u64 literal
0000088: 12                                         ; OPCODE_I64_CONST
0000089: 0000 0000 0000 0000                        ; u64 literal
0000091: 12                                         ; OPCODE_I64_CONST
0000092: 0000 0000 0000 0000                        ; u64 literal
000009a: 12                                         ; OPCODE_I64_CONST
000009b: 0000 0000 0000 0000                        ; u64 literal
00000a3: 12                                         ; OPCODE_I64_CONST
00000a4: 0000 0000 0000 0000                        ; u64 literal
00000ac: 12                                         ; OPCODE_I64_CONST
00000ad: 0000 0000 0000 0000                        ; u64 literal
00000b5: 12                                         ; OPCODE_I64_CONST
00000b6: 0000 0000 0000 0000                        ; u64 literal
00000be: 12                                         ; OPCODE_I64_CONST
00000bf: 0000 0000 0000 0000                        ; u64 literal
00000c7: 75                                         ; OPCODE_F32_ADD
00000c8: 76                                         ; OPCODE_F32_SUB
00000c9: 77                                         ; OPCODE_F32_MUL
00000ca: 78                                         ; OPCODE_F32_DIV
00000cb: 79                                         ; OPCODE_F32_MIN
00000cc: 7a                                         ; OPCODE_F32_MAX
00000cd: 7d                                         ; OPCODE_F32_COPYSIGN
00000ce: 14                                         ; OPCODE_F32_CONST
00000cf: 0000 0000                                  ; f32 literal
00000d3: 14                                         ; OPCODE_F32_CONST
00000d4: 0000 0000                                  ; f32 literal
00000d8: 14                                         ; OPCODE_F32_CONST
00000d9: 0000 0000                                  ; f32 literal
00000dd: 14                                         ; OPCODE_F32_CONST
00000de: 0000 0000                                  ; f32 literal
00000e2: 14                                         ; OPCODE_F32_CONST
00000e3: 0000 0000                                  ; f32 literal
00000e7: 14                                         ; OPCODE_F32_CONST
00000e8: 0000 0000                                  ; f32 literal
00000ec: 14                                         ; OPCODE_F32_CONST
00000ed: 0000 0000                                  ; f32 literal
00000f1: 14                                         ; OPCODE_F32_CONST
00000f2: 0000 0000                                  ; f32 literal
00000f6: 89                                         ; OPCODE_F64_ADD
00000f7: 8a                                         ; OPCODE_F64_SUB
00000f8: 8b                                         ; OPCODE_F64_MUL
00000f9: 8c                                         ; OPCODE_F64_DIV
00000fa: 8d                                         ; OPCODE_F64_MIN
00000fb: 8e                                         ; OPCODE_F64_MAX
00000fc: 91                                         ; OPCODE_F64_COPYSIGN
00000fd: 13                                         ; OPCODE_F64_CONST
00000fe: 0000 0000 0000 0000                        ; f64 literal
0000106: 13                                         ; OPCODE_F64_CONST
0000107: 0000 0000 0000 0000                        ; f64 literal
000010f: 13                                         ; OPCODE_F64_CONST
0000110: 0000 0000 0000 0000                        ; f64 literal
0000118: 13                                         ; OPCODE_F64_CONST
0000119: 0000 0000 0000 0000                        ; f64 literal
0000121: 13                                         ; OPCODE_F64_CONST
0000122: 0000 0000 0000 0000                        ; f64 literal
000012a: 13                                         ; OPCODE_F64_CONST
000012b: 0000 0000 0000 0000                        ; f64 literal
0000133: 13                                         ; OPCODE_F64_CONST
0000134: 0000 0000 0000 0000                        ; f64 literal
000013c: 13                                         ; OPCODE_F64_CONST
000013d: 0000 0000 0000 0000                        ; f64 literal
0000011: 3201                                       ; FIXUP func body size
0000145: 06                                         ; WASM_SECTION_END
; names
0000000: 0000 0001 0101 0000 0201 0100 0000 0000  ................
0000010: 0032 0140 4142 4344 4546 4748 494a 4b4c  .2.@ABCDEFGHIJKL
0000020: 1000 1000 1000 1000 1000 1000 1000 1000  ................
0000030: 1000 1000 1000 1000 1000 1000 5b5c 5d5e  ............[\]^
0000040: 5f60 6162 6364 6566 6712 0000 0000 0000  _`abcdefg.......
0000050: 0000 1200 0000 0000 0000 0012 0000 0000  ................
0000060: 0000 0000 1200 0000 0000 0000 0012 0000  ................
0000070: 0000 0000 0000 1200 0000 0000 0000 0012  ................
0000080: 0000 0000 0000 0000 1200 0000 0000 0000  ................
0000090: 0012 0000 0000 0000 0000 1200 0000 0000  ................
00000a0: 0000 0012 0000 0000 0000 0000 1200 0000  ................
00000b0: 0000 0000 0012 0000 0000 0000 0000 1200  ................
00000c0: 0000 0000 0000 0075 7677 7879 7a7d 1400  .......uvwxyz}..
00000d0: 0000 0014 0000 0000 1400 0000 0014 0000  ................
00000e0: 0000 1400 0000 0014 0000 0000 1400 0000  ................
00000f0: 0014 0000 0000 898a 8b8c 8d8e 9113 0000  ................
0000100: 0000 0000 0000 1300 0000 0000 0000 0013  ................
0000110: 0000 0000 0000 0000 1300 0000 0000 0000  ................
0000120: 0013 0000 0000 0000 0000 1300 0000 0000  ................
0000130: 0000 0013 0000 0000 0000 0000 1300 0000  ................
0000140: 0000 0000 0006                           ......
;;; STDOUT ;;)
