;;; FLAGS: -dv
(module
  (func
    (block
      (nop)
      (nop)
      (nop)))

  (func (result i32)
    (block
      (i32.const 1))))
(;; STDOUT ;;;
0000000: 0061 736d                                  ; WASM_BINARY_MAGIC
0000004: 0a00 0000                                  ; WASM_BINARY_VERSION
; section "signatures"
0000008: 00                                         ; section size (guess)
0000009: 0a                                         ; string length
000000a: 7369 676e 6174 7572 6573                   ; section id: "signatures"
0000014: 02                                         ; num signatures
; signature 0
0000015: 00                                         ; num params
0000016: 00                                         ; result_type
; signature 1
0000017: 00                                         ; num params
0000018: 01                                         ; result_type
0000008: 10                                         ; FIXUP section size
; section "function_signatures"
0000019: 00                                         ; section size (guess)
000001a: 13                                         ; string length
000001b: 6675 6e63 7469 6f6e 5f73 6967 6e61 7475  
000002b: 7265 73                                    ; section id: "function_signatures"
000002e: 02                                         ; num functions
000002f: 00                                         ; function 0 signature index
0000030: 01                                         ; function 1 signature index
0000019: 17                                         ; FIXUP section size
; section "function_bodies"
0000031: 00                                         ; section size (guess)
0000032: 0f                                         ; string length
0000033: 6675 6e63 7469 6f6e 5f62 6f64 6965 73      ; section id: "function_bodies"
0000042: 02                                         ; num functions
; function body 0
0000043: 00                                         ; func body size (guess)
0000044: 00                                         ; local decl count
0000045: 01                                         ; OPCODE_BLOCK
0000046: 03                                         ; num expressions
0000047: 00                                         ; OPCODE_NOP
0000048: 00                                         ; OPCODE_NOP
0000049: 00                                         ; OPCODE_NOP
0000043: 06                                         ; FIXUP func body size
; function body 1
000004a: 00                                         ; func body size (guess)
000004b: 00                                         ; local decl count
000004c: 0a                                         ; OPCODE_I32_CONST
000004d: 01                                         ; i32 literal
000004a: 03                                         ; FIXUP func body size
0000031: 1c                                         ; FIXUP section size
; section "end"
000004e: 00                                         ; section size (guess)
000004f: 03                                         ; string length
0000050: 656e 64                                    ; section id: "end"
000004e: 04                                         ; FIXUP section size
;; dump
0000000: 0061 736d 0a00 0000 100a 7369 676e 6174  
0000010: 7572 6573 0200 0000 0117 1366 756e 6374  
0000020: 696f 6e5f 7369 676e 6174 7572 6573 0200  
0000030: 011c 0f66 756e 6374 696f 6e5f 626f 6469  
0000040: 6573 0206 0001 0300 0000 0300 0a01 0403  
0000050: 656e 64                                  
;;; STDOUT ;;)
