# FLAGS: -dv
(module
  (func
    (block
      (nop)
      (nop)
      (nop))))
# STDOUT:
0000000: 14                                         ; mem size log 2
0000001: 01                                         ; export mem
0000002: 0000                                       ; num globals
0000004: 0100                                       ; num funcs
0000006: 0000                                       ; num data segments
0000008: 00                                         ; func num args
0000009: 00                                         ; func result type
000000a: 0000 0000                                  ; func name offset
000000e: 0000 0000                                  ; func code start offset
0000012: 0000 0000                                  ; func code end offset
0000016: 0000                                       ; num local i32
0000018: 0000                                       ; num local i64
000001a: 0000                                       ; num local f32
000001c: 0000                                       ; num local f64
000001e: 00                                         ; export func
000001f: 00                                         ; func external
000000e: 2000 0000                                  ; FIXUP func code start offset
0000020: 03                                         ; OPCODE_BLOCK
0000021: 00                                         ; num expressions
0000022: 00                                         ; OPCODE_NOP
0000023: 00                                         ; OPCODE_NOP
0000024: 00                                         ; OPCODE_NOP
0000021: 03                                         ; FIXUP num expressions
0000012: 2500 0000                                  ; FIXUP func code end offset
0000000: 1401 0000 0100 0000 0000 0000 0000 2000  .............. .
0000010: 0000 2500 0000 0000 0000 0000 0000 0000  ..%.............
0000020: 0303 0000 00                             .....
