;;; FLAGS: -dv
(module
  (func
    (block
      (nop)
      (nop)
      (nop)))

  (func (result i32)
    (block
      (i32.const 1))))
(;; STDOUT ;;;
0000000: 00                                         ; WASM_SECTION_MEMORY
0000001: 00                                         ; min mem size log 2
0000002: 00                                         ; max mem size log 2
0000003: 01                                         ; export mem
0000004: 01                                         ; WASM_SECTION_SIGNATURES
0000005: 02                                         ; num signatures
; signature 0
0000006: 00                                         ; num args
0000007: 00                                         ; result_type
; signature 1
0000008: 00                                         ; num args
0000009: 01                                         ; result_type
000000a: 02                                         ; WASM_SECTION_FUNCTIONS
000000b: 02                                         ; num functions
; function 0
000000c: 01                                         ; func flags
000000d: 0000                                       ; func signature index
000000f: 0000 0000                                  ; func name offset
0000013: 0000                                       ; func body size
0000015: 03                                         ; OPCODE_BLOCK
0000016: 00                                         ; num expressions
0000017: 00                                         ; OPCODE_NOP
0000018: 00                                         ; OPCODE_NOP
0000019: 00                                         ; OPCODE_NOP
0000016: 03                                         ; FIXUP num expressions
0000013: 0500                                       ; FIXUP func body size
; function 1
000001a: 01                                         ; func flags
000001b: 0100                                       ; func signature index
000001d: 0000 0000                                  ; func name offset
0000021: 0000                                       ; func body size
0000023: 03                                         ; OPCODE_BLOCK
0000024: 00                                         ; num expressions
0000025: 10                                         ; OPCODE_I8_CONST
0000026: 01                                         ; u8 literal
0000023: 1d                                         ; FIXUP OPCODE_EXPR_BLOCK
0000024: 01                                         ; FIXUP num expressions
0000021: 0400                                       ; FIXUP func body size
0000027: 06                                         ; WASM_SECTION_END
; names
0000000: 0000 0001 0102 0000 0001 0202 0100 0000  ................
0000010: 0000 0005 0003 0300 0000 0101 0000 0000  ................
0000020: 0004 001d 0110 0106                      ........
;;; STDOUT ;;)
