;;; FLAGS: -dv
(module
  (func
    (block
      (nop)
      (nop)
      (nop)))

  (func (result i32)
    (block
      (i32.const 1))))
(;; STDOUT ;;;
0000000: 0061 736d                                  ; WASM_BINARY_MAGIC
0000004: 0b00 0000                                  ; WASM_BINARY_VERSION
; section "type"
0000008: 04                                         ; string length
0000009: 7479 7065                                  ; section id: "type"
000000d: 00                                         ; section size (guess)
000000e: 02                                         ; num types
; type 0
000000f: 40                                         ; function form
0000010: 00                                         ; num params
0000011: 00                                         ; num results
; type 1
0000012: 40                                         ; function form
0000013: 00                                         ; num params
0000014: 01                                         ; num results
0000015: 01                                         ; result_type
000000d: 08                                         ; FIXUP section size
; section "function"
0000016: 08                                         ; string length
0000017: 6675 6e63 7469 6f6e                        ; section id: "function"
000001f: 00                                         ; section size (guess)
0000020: 02                                         ; num functions
0000021: 00                                         ; function 0 signature index
0000022: 01                                         ; function 1 signature index
000001f: 03                                         ; FIXUP section size
; section "code"
0000023: 04                                         ; string length
0000024: 636f 6465                                  ; section id: "code"
0000028: 00                                         ; section size (guess)
0000029: 02                                         ; num functions
; function body 0
000002a: 00                                         ; func body size (guess)
000002b: 00                                         ; local decl count
000002c: 01                                         ; OPCODE_BLOCK
000002d: 00                                         ; OPCODE_NOP
000002e: 00                                         ; OPCODE_NOP
000002f: 00                                         ; OPCODE_NOP
0000030: 0f                                         ; OPCODE_END
000002a: 06                                         ; FIXUP func body size
; function body 1
0000031: 00                                         ; func body size (guess)
0000032: 00                                         ; local decl count
0000033: 01                                         ; OPCODE_BLOCK
0000034: 10                                         ; OPCODE_I32_CONST
0000035: 01                                         ; i32 literal
0000036: 0f                                         ; OPCODE_END
0000031: 05                                         ; FIXUP func body size
0000028: 0e                                         ; FIXUP section size
;; dump
0000000: 0061 736d 0b00 0000 0474 7970 6508 0240  
0000010: 0000 4000 0101 0866 756e 6374 696f 6e03  
0000020: 0200 0104 636f 6465 0e02 0600 0100 0000  
0000030: 0f05 0001 1001 0f                        
;;; STDOUT ;;)
