;;; FLAGS: -dv
(module
  (func                     ;; depth
    (block $outer           ;; 4
      (loop                 ;; 2 loop, 3 exit
        (block              ;; 1
          (i32.const 0)
          (block $inner     ;; 0
            (br)
            (br 0)
            (br 1)
            (br 2)
            (br 3)))))))
(;; STDOUT ;;;
0000000: 0061 736d                                  ; WASM_BINARY_MAGIC
0000004: 0a00 0000                                  ; WASM_BINARY_VERSION
0000008: 01                                         ; WASM_BINARY_SECTION_SIGNATURES
0000009: 01                                         ; num signatures
; signature 0
000000a: 00                                         ; num params
000000b: 00                                         ; result_type
000000c: 02                                         ; WASM_BINARY_SECTION_FUNCTIONS
000000d: 01                                         ; num functions
; function 0
000000e: 00                                         ; func flags
000000f: 0000                                       ; func signature index
0000011: 0000                                       ; func body size
0000013: 00                                         ; local decl count
0000014: 01                                         ; OPCODE_BLOCK
0000015: 01                                         ; num expressions
0000016: 02                                         ; OPCODE_LOOP
0000017: 01                                         ; num expressions
0000018: 01                                         ; OPCODE_BLOCK
0000019: 02                                         ; num expressions
000001a: 0a                                         ; OPCODE_I32_CONST
000001b: 00                                         ; i32 literal
000001c: 01                                         ; OPCODE_BLOCK
000001d: 05                                         ; num expressions
000001e: 06                                         ; OPCODE_BR
000001f: 00                                         ; break arity
0000020: 00                                         ; break depth
0000021: 06                                         ; OPCODE_BR
0000022: 00                                         ; break arity
0000023: 00                                         ; break depth
0000024: 06                                         ; OPCODE_BR
0000025: 00                                         ; break arity
0000026: 01                                         ; break depth
0000027: 06                                         ; OPCODE_BR
0000028: 00                                         ; break arity
0000029: 02                                         ; break depth
000002a: 06                                         ; OPCODE_BR
000002b: 00                                         ; break arity
000002c: 03                                         ; break depth
0000011: 1a00                                       ; FIXUP func body size
000002d: 06                                         ; WASM_BINARY_SECTION_END
;; dump
0000000: 0061 736d 0a00 0000 0101 0000 0201 0000  
0000010: 001a 0000 0101 0201 0102 0a00 0105 0600  
0000020: 0006 0000 0600 0106 0002 0600 0306       
;;; STDOUT ;;)
