;;; FLAGS: -dv
(module
  (func                     ;; depth
    (block $outer           ;; 4
      (loop                 ;; 2 loop, 3 exit
        (block              ;; 1
          (i32.const 0)
          (block $inner     ;; 0
            (br)
            (br 0)
            (br 1)
            (br 2)
            (br 3)))))))
(;; STDOUT ;;;
0000000: 0061 736d                                  ; WASM_BINARY_MAGIC
0000004: 0a00 0000                                  ; WASM_BINARY_VERSION
0000008: 01                                         ; WASM_BINARY_SECTION_SIGNATURES
0000009: 01                                         ; num signatures
; signature 0
000000a: 00                                         ; num params
000000b: 00                                         ; result_type
000000c: 0a                                         ; WASM_BINARY_SECTION_FUNCTION_SIGNATURES
000000d: 01                                         ; num functions
000000e: 00                                         ; function 0 signature index
000000f: 0b                                         ; WASM_BINARY_SECTION_FUNCTION_BODIES
0000010: 01                                         ; num functions
; function body 0
0000011: 00                                         ; func body size (guess)
0000012: 00                                         ; local decl count
0000013: 01                                         ; OPCODE_BLOCK
0000014: 01                                         ; num expressions
0000015: 02                                         ; OPCODE_LOOP
0000016: 01                                         ; num expressions
0000017: 01                                         ; OPCODE_BLOCK
0000018: 02                                         ; num expressions
0000019: 0a                                         ; OPCODE_I32_CONST
000001a: 00                                         ; i32 literal
000001b: 01                                         ; OPCODE_BLOCK
000001c: 05                                         ; num expressions
000001d: 06                                         ; OPCODE_BR
000001e: 00                                         ; break depth
000001f: 00                                         ; OPCODE_NOP
0000020: 06                                         ; OPCODE_BR
0000021: 00                                         ; break depth
0000022: 00                                         ; OPCODE_NOP
0000023: 06                                         ; OPCODE_BR
0000024: 01                                         ; break depth
0000025: 00                                         ; OPCODE_NOP
0000026: 06                                         ; OPCODE_BR
0000027: 02                                         ; break depth
0000028: 00                                         ; OPCODE_NOP
0000029: 06                                         ; OPCODE_BR
000002a: 03                                         ; break depth
000002b: 00                                         ; OPCODE_NOP
0000011: 1a                                         ; FIXUP func body size
000002c: 06                                         ; WASM_BINARY_SECTION_END
;; dump
0000000: 0061 736d 0a00 0000 0101 0000 0a01 000b  
0000010: 011a 0001 0102 0101 020a 0001 0506 0000  
0000020: 0600 0006 0100 0602 0006 0300 06         
;;; STDOUT ;;)
