;;; FLAGS: -dv
(module
  (func (result i32)
    (loop $exit $cont
      (if (i32.const 1)
        (br $cont))
      (if (i32.const 3)
        (br $exit (i32.const 4)))
      (i32.const 5))))
(;; STDOUT ;;;
0000000: 01                                         ; WASM_SECTION_SIGNATURES
0000001: 01                                         ; num signatures
; signature 0
0000002: 00                                         ; num params
0000003: 01                                         ; result_type
0000004: 02                                         ; WASM_SECTION_FUNCTIONS
0000005: 01                                         ; num functions
; function 0
0000006: 00                                         ; func flags
0000007: 0000                                       ; func signature index
0000009: 0000                                       ; func body size
000000b: 02                                         ; OPCODE_LOOP
000000c: 03                                         ; num expressions
000000d: 03                                         ; OPCODE_IF
000000e: 09                                         ; OPCODE_I8_CONST
000000f: 01                                         ; u8 literal
0000010: 06                                         ; OPCODE_BR
0000011: 00                                         ; break depth
0000012: 00                                         ; OPCODE_NOP
0000013: 03                                         ; OPCODE_IF
0000014: 09                                         ; OPCODE_I8_CONST
0000015: 03                                         ; u8 literal
0000016: 06                                         ; OPCODE_BR
0000017: 01                                         ; break depth
0000018: 09                                         ; OPCODE_I8_CONST
0000019: 04                                         ; u8 literal
000001a: 09                                         ; OPCODE_I8_CONST
000001b: 05                                         ; u8 literal
0000009: 1100                                       ; FIXUP func body size
000001c: 06                                         ; WASM_SECTION_END
;; dump
0000000: 0101 0001 0201 0000 0011 0002 0303 0901  
0000010: 0600 0003 0903 0601 0904 0905 06         
;;; STDOUT ;;)
