;;; FLAGS: -dv
(module
  (func (result i32)
    (loop $exit $cont
      (if (i32.const 1)
        (br $cont))
      (if (i32.const 3)
        (br $exit (i32.const 4)))
      (i32.const 5))))
(;; STDOUT ;;;
0000000: 0061 736d                                  ; WASM_BINARY_MAGIC
0000004: 0a00 0000                                  ; WASM_BINARY_VERSION
0000008: 01                                         ; WASM_BINARY_SECTION_SIGNATURES
0000009: 01                                         ; num signatures
; signature 0
000000a: 00                                         ; num params
000000b: 01                                         ; result_type
000000c: 02                                         ; WASM_BINARY_SECTION_FUNCTIONS
000000d: 01                                         ; num functions
; function 0
000000e: 00                                         ; func flags
000000f: 0000                                       ; func signature index
0000011: 0000                                       ; func body size
0000013: 02                                         ; OPCODE_LOOP
0000014: 03                                         ; num expressions
0000015: 03                                         ; OPCODE_IF
0000016: 09                                         ; OPCODE_I8_CONST
0000017: 01                                         ; u8 literal
0000018: 06                                         ; OPCODE_BR
0000019: 00                                         ; break depth
000001a: 00                                         ; OPCODE_NOP
000001b: 03                                         ; OPCODE_IF
000001c: 09                                         ; OPCODE_I8_CONST
000001d: 03                                         ; u8 literal
000001e: 06                                         ; OPCODE_BR
000001f: 01                                         ; break depth
0000020: 09                                         ; OPCODE_I8_CONST
0000021: 04                                         ; u8 literal
0000022: 09                                         ; OPCODE_I8_CONST
0000023: 05                                         ; u8 literal
0000011: 1100                                       ; FIXUP func body size
0000024: 06                                         ; WASM_BINARY_SECTION_END
;; dump
0000000: 0061 736d 0a00 0000 0101 0001 0201 0000  
0000010: 0011 0002 0303 0901 0600 0003 0903 0601  
0000020: 0904 0905 06                             
;;; STDOUT ;;)
