;;; FLAGS: -dv
(module
  (func
    (loop $exit $cont
      (if (i32.const 1)
        (br $exit))
      (if (i32.const 2)
        (br $cont)))))
(;; STDOUT ;;;
0000000: 0061 736d                                  ; WASM_BINARY_MAGIC
0000004: 0a00 0000                                  ; WASM_BINARY_VERSION
0000008: 01                                         ; WASM_BINARY_SECTION_SIGNATURES
0000009: 01                                         ; num signatures
; signature 0
000000a: 00                                         ; num params
000000b: 00                                         ; result_type
000000c: 02                                         ; WASM_BINARY_SECTION_FUNCTIONS
000000d: 01                                         ; num functions
; function 0
000000e: 00                                         ; func flags
000000f: 0000                                       ; func signature index
0000011: 0000                                       ; func body size
0000013: 00                                         ; local decl count
0000014: 02                                         ; OPCODE_LOOP
0000015: 02                                         ; num expressions
0000016: 03                                         ; OPCODE_IF
0000017: 0a                                         ; OPCODE_I32_CONST
0000018: 01                                         ; i32 literal
0000019: 01                                         ; OPCODE_BLOCK
000001a: 01                                         ; num expressions
000001b: 06                                         ; OPCODE_BR
000001c: 00                                         ; break arity
000001d: 02                                         ; break depth
000001e: 03                                         ; OPCODE_IF
000001f: 0a                                         ; OPCODE_I32_CONST
0000020: 02                                         ; i32 literal
0000021: 01                                         ; OPCODE_BLOCK
0000022: 01                                         ; num expressions
0000023: 06                                         ; OPCODE_BR
0000024: 00                                         ; break arity
0000025: 01                                         ; break depth
0000011: 1300                                       ; FIXUP func body size
0000026: 06                                         ; WASM_BINARY_SECTION_END
;; dump
0000000: 0061 736d 0a00 0000 0101 0000 0201 0000  
0000010: 0013 0000 0202 030a 0101 0106 0002 030a  
0000020: 0201 0106 0001 06                        
;;; STDOUT ;;)
