;;; FLAGS: -dv
(module
  (func
    (loop $exit $cont
      (if (i32.const 1)
        (br $exit))
      (if (i32.const 2)
        (br $cont)))))
(;; STDOUT ;;;
0000000: 0061 736d                                  ; WASM_BINARY_MAGIC
0000004: 0c00 0000                                  ; WASM_BINARY_VERSION
; section "type"
0000008: 04                                         ; string length
0000009: 7479 7065                                  ; section id: "type"
000000d: 00                                         ; section size (guess)
000000e: 01                                         ; num types
; type 0
000000f: 40                                         ; function form
0000010: 00                                         ; num params
0000011: 00                                         ; num results
000000d: 04                                         ; FIXUP section size
; section "function"
0000012: 08                                         ; string length
0000013: 6675 6e63 7469 6f6e                        ; section id: "function"
000001b: 00                                         ; section size (guess)
000001c: 01                                         ; num functions
000001d: 00                                         ; function 0 signature index
000001b: 02                                         ; FIXUP section size
; section "code"
000001e: 04                                         ; string length
000001f: 636f 6465                                  ; section id: "code"
0000023: 00                                         ; section size (guess)
0000024: 01                                         ; num functions
; function body 0
0000025: 00                                         ; func body size (guess)
0000026: 00                                         ; local decl count
0000027: 01                                         ; OPCODE_BLOCK
0000028: 02                                         ; OPCODE_LOOP
0000029: 10                                         ; OPCODE_I32_CONST
000002a: 01                                         ; i32 literal
000002b: 03                                         ; OPCODE_IF
000002c: 06                                         ; OPCODE_BR
000002d: 00                                         ; br arity
000002e: 02                                         ; break depth
000002f: 0f                                         ; OPCODE_END
0000030: 10                                         ; OPCODE_I32_CONST
0000031: 02                                         ; i32 literal
0000032: 03                                         ; OPCODE_IF
0000033: 06                                         ; OPCODE_BR
0000034: 00                                         ; br arity
0000035: 01                                         ; break depth
0000036: 0f                                         ; OPCODE_END
0000037: 0f                                         ; OPCODE_END
0000038: 0f                                         ; OPCODE_END
0000025: 13                                         ; FIXUP func body size
0000023: 15                                         ; FIXUP section size
;; dump
0000000: 0061 736d 0c00 0000 0474 7970 6504 0140  
0000010: 0000 0866 756e 6374 696f 6e02 0100 0463  
0000020: 6f64 6515 0113 0001 0210 0103 0600 020f  
0000030: 1002 0306 0001 0f0f 0f                   
;;; STDOUT ;;)
