;;; TOOL: run-objdump
;;; ARGS0: -v
(module
  (func
    (block $exit (loop $cont
      (if (i32.const 1)
        (br $exit))
      (if (i32.const 2)
        (br $cont))))))
(;; STDOUT ;;;
0000000: 0061 736d                                 ; WASM_BINARY_MAGIC
0000004: 0100 0000                                 ; WASM_BINARY_VERSION
; section "Type" (1)
0000008: 01                                        ; section code
0000009: 00                                        ; section size (guess)
000000a: 01                                        ; num types
; type 0
000000b: 60                                        ; func
000000c: 00                                        ; num params
000000d: 00                                        ; num results
0000009: 04                                        ; FIXUP section size
; section "Function" (3)
000000e: 03                                        ; section code
000000f: 00                                        ; section size (guess)
0000010: 01                                        ; num functions
0000011: 00                                        ; function 0 signature index
000000f: 02                                        ; FIXUP section size
; section "Code" (10)
0000012: 0a                                        ; section code
0000013: 00                                        ; section size (guess)
0000014: 01                                        ; num functions
; function body 0
0000015: 00                                        ; func body size (guess)
0000016: 00                                        ; local decl count
0000017: 02                                        ; block
0000018: 40                                        ; void
0000019: 03                                        ; loop
000001a: 40                                        ; void
000001b: 41                                        ; i32.const
000001c: 01                                        ; i32 literal
000001d: 04                                        ; if
000001e: 40                                        ; void
000001f: 0c                                        ; br
0000020: 02                                        ; break depth
0000021: 0b                                        ; end
0000022: 41                                        ; i32.const
0000023: 02                                        ; i32 literal
0000024: 04                                        ; if
0000025: 40                                        ; void
0000026: 0c                                        ; br
0000027: 01                                        ; break depth
0000028: 0b                                        ; end
0000029: 0b                                        ; end
000002a: 0b                                        ; end
000002b: 0b                                        ; end
0000015: 16                                        ; FIXUP func body size
0000013: 18                                        ; FIXUP section size

br-loop-inner.wasm:	file format wasm 0x1

Code Disassembly:

000016 func[00]:
 000017[001]: 02 40                      | block
 000019[003]: 03 40                      |   loop
 00001b[005]: 41 01                      |     i32.const 1
 00001d[007]: 04 40                      |     if
 00001f[009]: 0c 02                      |       br 2
 000021[011]: 0b                         |     end
 000022[012]: 41 02                      |     i32.const 2
 000024[014]: 04 40                      |     if
 000026[016]: 0c 01                      |       br 1
 000028[018]: 0b                         |     end
 000029[019]: 0b                         |   end
 00002a[020]: 0b                         | end
 00002b[021]: 0b                         | end
;;; STDOUT ;;)
