;;; TOOL: run-objdump
;;; FLAGS: -v
(module
  (func
    loop $cont
      i32.const 1
      if 
        br $cont
      end
    end))
(;; STDOUT ;;;
0000000: 0061 736d                                 ; WASM_BINARY_MAGIC
0000004: 0100 0000                                 ; WASM_BINARY_VERSION
; section "Type" (1)
0000008: 01                                        ; section code
0000009: 00                                        ; section size (guess)
000000a: 01                                        ; num types
; type 0
000000b: 60                                        ; func
000000c: 00                                        ; num params
000000d: 00                                        ; num results
0000009: 04                                        ; FIXUP section size
; section "Function" (3)
000000e: 03                                        ; section code
000000f: 00                                        ; section size (guess)
0000010: 01                                        ; num functions
0000011: 00                                        ; function 0 signature index
000000f: 02                                        ; FIXUP section size
; section "Code" (10)
0000012: 0a                                        ; section code
0000013: 00                                        ; section size (guess)
0000014: 01                                        ; num functions
; function body 0
0000015: 00                                        ; func body size (guess)
0000016: 00                                        ; local decl count
0000017: 03                                        ; loop
0000018: 40                                        ; void
0000019: 41                                        ; i32.const
000001a: 01                                        ; i32 literal
000001b: 04                                        ; if
000001c: 40                                        ; void
000001d: 0c                                        ; br
000001e: 01                                        ; break depth
000001f: 0b                                        ; end
0000020: 0b                                        ; end
0000021: 0b                                        ; end
0000015: 0c                                        ; FIXUP func body size
0000013: 0e                                        ; FIXUP section size

br-loop.wasm:	file format wasm 0x1

Code Disassembly:

000015 func[0]:
 000017: 03 40                      | loop
 000019: 41 01                      |   i32.const 1
 00001b: 04 40                      |   if
 00001d: 0c 01                      |     br 1
 00001f: 0b                         |   end
 000020: 0b                         | end
 000021: 0b                         | end
;;; STDOUT ;;)
