;;; FLAGS: -dv
(module
  (func (result i32)
    (loop $exit $cont
      (if (i32.const 1)
        (br $cont))
      (if (i32.const 3)
        (br $exit (i32.const 4)))
      (i32.const 5))))
(;; STDOUT ;;;
0000000: 0061 736d                                  ; WASM_BINARY_MAGIC
0000004: 0a00 0000                                  ; WASM_BINARY_VERSION
0000008: 01                                         ; WASM_BINARY_SECTION_SIGNATURES
0000009: 01                                         ; num signatures
; signature 0
000000a: 00                                         ; num params
000000b: 01                                         ; result_type
000000c: 0a                                         ; WASM_BINARY_SECTION_FUNCTION_SIGNATURES
000000d: 01                                         ; num functions
000000e: 00                                         ; function 0 signature index
000000f: 0b                                         ; WASM_BINARY_SECTION_FUNCTION_BODIES
0000010: 01                                         ; num functions
; function body 0
0000011: 00                                         ; func body size (guess)
0000012: 00                                         ; local decl count
0000013: 02                                         ; OPCODE_LOOP
0000014: 03                                         ; num expressions
0000015: 03                                         ; OPCODE_IF
0000016: 0a                                         ; OPCODE_I32_CONST
0000017: 01                                         ; i32 literal
0000018: 01                                         ; OPCODE_BLOCK
0000019: 01                                         ; num expressions
000001a: 06                                         ; OPCODE_BR
000001b: 01                                         ; break depth
000001c: 00                                         ; OPCODE_NOP
000001d: 03                                         ; OPCODE_IF
000001e: 0a                                         ; OPCODE_I32_CONST
000001f: 03                                         ; i32 literal
0000020: 01                                         ; OPCODE_BLOCK
0000021: 01                                         ; num expressions
0000022: 06                                         ; OPCODE_BR
0000023: 02                                         ; break depth
0000024: 0a                                         ; OPCODE_I32_CONST
0000025: 04                                         ; i32 literal
0000026: 0a                                         ; OPCODE_I32_CONST
0000027: 05                                         ; i32 literal
0000011: 16                                         ; FIXUP func body size
0000028: 06                                         ; WASM_BINARY_SECTION_END
;; dump
0000000: 0061 736d 0a00 0000 0101 0001 0a01 000b  
0000010: 0116 0002 0303 0a01 0101 0601 0003 0a03  
0000020: 0101 0602 0a04 0a05 06                   
;;; STDOUT ;;)
