;;; FLAGS: -dv
(module
  (func                     ;; spec  v8
    (block $outer           ;; 2     4
      (loop                 ;; 1     2 (3 is exit)
        (block              ;;       1
          (i32.const 0)
          (block $inner     ;; 0     0
            (break)
            (break 0)
            (break 1)
            (break 2)))))))
(;; STDOUT ;;;
0000000: 00                                         ; WASM_SECTION_MEMORY
0000001: 00                                         ; min mem size log 2
0000002: 00                                         ; max mem size log 2
0000003: 01                                         ; export mem
0000004: 01                                         ; WASM_SECTION_SIGNATURES
0000005: 01                                         ; num signatures
; signature 0
0000006: 00                                         ; num params
0000007: 00                                         ; result_type
0000008: 02                                         ; WASM_SECTION_FUNCTIONS
0000009: 01                                         ; num functions
; function 0
000000a: 01                                         ; func flags
000000b: 0000                                       ; func signature index
000000d: 0000 0000                                  ; func name offset
0000011: 0000                                       ; func body size
0000013: 01                                         ; OPCODE_BLOCK
0000014: 01                                         ; num expressions
0000015: 02                                         ; OPCODE_LOOP
0000016: 01                                         ; num expressions
0000017: 01                                         ; OPCODE_BLOCK
0000018: 02                                         ; num expressions
0000019: 09                                         ; OPCODE_I8_CONST
000001a: 00                                         ; u8 literal
000001b: 01                                         ; OPCODE_BLOCK
000001c: 04                                         ; num expressions
000001d: 06                                         ; OPCODE_BR
000001e: 00                                         ; break depth
000001f: 00                                         ; OPCODE_NOP
0000020: 06                                         ; OPCODE_BR
0000021: 00                                         ; break depth
0000022: 00                                         ; OPCODE_NOP
0000023: 06                                         ; OPCODE_BR
0000024: 02                                         ; break depth
0000025: 00                                         ; OPCODE_NOP
0000026: 06                                         ; OPCODE_BR
0000027: 04                                         ; break depth
0000028: 00                                         ; OPCODE_NOP
0000011: 1600                                       ; FIXUP func body size
0000029: 06                                         ; WASM_SECTION_END
;;; STDOUT ;;)
