;;; FLAGS: -dv
(module
  (func
    (loop $exit $cont
      (if (i32.const 1)
        (break $exit))
      (if (i32.const 2)
        (break $cont)))))
(;; STDOUT ;;;
0000000: 00                                         ; WASM_SECTION_MEMORY
0000001: 00                                         ; min mem size log 2
0000002: 00                                         ; max mem size log 2
0000003: 01                                         ; export mem
0000004: 01                                         ; WASM_SECTION_SIGNATURES
0000005: 01                                         ; num signatures
; signature 0
0000006: 00                                         ; num args
0000007: 00                                         ; result_type
0000008: 02                                         ; WASM_SECTION_FUNCTIONS
0000009: 01                                         ; num functions
; function 0
000000a: 01                                         ; func flags
000000b: 0000                                       ; func signature index
000000d: 0000 0000                                  ; func name offset
0000011: 0000                                       ; func body size
0000013: 02                                         ; OPCODE_LOOP
0000014: 00                                         ; num expressions
0000015: 03                                         ; OPCODE_IF
0000016: 09                                         ; OPCODE_I8_CONST
0000017: 01                                         ; u8 literal
0000018: 06                                         ; OPCODE_BR
0000019: 01                                         ; break depth
000001a: 00                                         ; OPCODE_NOP
000001b: 03                                         ; OPCODE_IF
000001c: 09                                         ; OPCODE_I8_CONST
000001d: 02                                         ; u8 literal
000001e: 06                                         ; OPCODE_BR
000001f: 00                                         ; break depth
0000020: 00                                         ; OPCODE_NOP
0000014: 02                                         ; FIXUP num expressions
0000011: 0e00                                       ; FIXUP func body size
0000021: 06                                         ; WASM_SECTION_END
; names
0000000: 0000 0001 0101 0000 0201 0100 0000 0000  ................
0000010: 000e 0002 0203 0901 0601 0003 0902 0600  ................
0000020: 0006                                     ..
;;; STDOUT ;;)
