;;; FLAGS: -dv
(module
  (func
    (block $foo
      (br_if (i32.const 1) $foo))))
(;; STDOUT ;;;
0000000: 01                                         ; WASM_SECTION_SIGNATURES
0000001: 01                                         ; num signatures
; signature 0
0000002: 00                                         ; num params
0000003: 00                                         ; result_type
0000004: 02                                         ; WASM_SECTION_FUNCTIONS
0000005: 01                                         ; num functions
; function 0
0000006: 00                                         ; func flags
0000007: 0000                                       ; func signature index
0000009: 0000                                       ; func body size
000000b: 01                                         ; OPCODE_BLOCK
000000c: 01                                         ; num expressions
000000d: 07                                         ; OPCODE_BR_IF
000000e: 00                                         ; break depth
000000f: 09                                         ; OPCODE_I8_CONST
0000010: 01                                         ; u8 literal
0000011: 00                                         ; OPCODE_NOP
0000009: 0700                                       ; FIXUP func body size
0000012: 06                                         ; WASM_SECTION_END
;; dump
0000000: 0101 0000 0201 0000 0007 0001 0107 0009  
0000010: 0100 06                                  
;;; STDOUT ;;)
