;;; TOOL: run-wasmdump
;;; FLAGS: -v
(module
  (func
    block
      i32.const 0  
      br_table 0 
    end))
(;; STDOUT ;;;
0000000: 0061 736d                                 ; WASM_BINARY_MAGIC
0000004: 0d00 0000                                 ; WASM_BINARY_VERSION
; section "TYPE" (1)
0000008: 01                                        ; section code
0000009: 00                                        ; section size (guess)
000000a: 01                                        ; num types
; type 0
000000b: 60                                        ; func
000000c: 00                                        ; num params
000000d: 00                                        ; num results
0000009: 04                                        ; FIXUP section size
; section "FUNCTION" (3)
000000e: 03                                        ; section code
000000f: 00                                        ; section size (guess)
0000010: 01                                        ; num functions
0000011: 00                                        ; function 0 signature index
000000f: 02                                        ; FIXUP section size
; section "CODE" (10)
0000012: 0a                                        ; section code
0000013: 00                                        ; section size (guess)
0000014: 01                                        ; num functions
; function body 0
0000015: 00                                        ; func body size (guess)
0000016: 00                                        ; local decl count
0000017: 02                                        ; block
0000018: 40                                        ; void
0000019: 41                                        ; i32.const
000001a: 00                                        ; i32 literal
000001b: 0e                                        ; br_table
000001c: 00                                        ; num targets
000001d: 00                                        ; break depth for default
000001e: 0b                                        ; end
000001f: 0b                                        ; end
0000015: 0a                                        ; FIXUP func body size
0000013: 0c                                        ; FIXUP section size
func 0
 000017: 02 40                      | block
 000019: 41 00                      |   i32.const 0
 00001b: 0e 00 00                   |   br_table
 00001e: 0b                         | end
;;; STDOUT ;;)
