;;; FLAGS: -dv
(module
  (func
    (block
      (block
        (block (br_table 0 1 0 (i32.const 0)))
        ;; case 0
        (drop (i32.const 1))
        (drop (i32.const 2))
        (br 1)  ;; topmost block
      )
      ;; case 1
      ;; fallthrough
    )
    (drop (i32.const 3))))
(;; STDOUT ;;;
0000000: 0061 736d                                  ; WASM_BINARY_MAGIC
0000004: 0c00 0000                                  ; WASM_BINARY_VERSION
; section "TYPE" (1)
0000008: 01                                         ; section code
0000009: 00                                         ; section size (guess)
000000a: 01                                         ; num types
; type 0
000000b: 40                                         ; function form
000000c: 00                                         ; num params
000000d: 00                                         ; num results
0000009: 04                                         ; FIXUP section size
; section "FUNCTION" (3)
000000e: 03                                         ; section code
000000f: 00                                         ; section size (guess)
0000010: 01                                         ; num functions
0000011: 00                                         ; function 0 signature index
000000f: 02                                         ; FIXUP section size
; section "CODE" (10)
0000012: 0a                                         ; section code
0000013: 00                                         ; section size (guess)
0000014: 01                                         ; num functions
; function body 0
0000015: 00                                         ; func body size (guess)
0000016: 00                                         ; local decl count
0000017: 01                                         ; OPCODE_BLOCK
0000018: 00                                         ; WASM_TYPE_VOID
0000019: 01                                         ; OPCODE_BLOCK
000001a: 00                                         ; WASM_TYPE_VOID
000001b: 01                                         ; OPCODE_BLOCK
000001c: 00                                         ; WASM_TYPE_VOID
000001d: 10                                         ; OPCODE_I32_CONST
000001e: 00                                         ; i32 literal
000001f: 08                                         ; OPCODE_BR_TABLE
0000020: 02                                         ; num targets
0000021: 0000 0000                                  ; break depth
0000025: 0100 0000                                  ; break depth
0000029: 0000 0000                                  ; break depth for default
000002d: 0f                                         ; OPCODE_END
000002e: 10                                         ; OPCODE_I32_CONST
000002f: 01                                         ; i32 literal
0000030: 0b                                         ; OPCODE_DROP
0000031: 10                                         ; OPCODE_I32_CONST
0000032: 02                                         ; i32 literal
0000033: 0b                                         ; OPCODE_DROP
0000034: 06                                         ; OPCODE_BR
0000035: 01                                         ; break depth
0000036: 0f                                         ; OPCODE_END
0000037: 0f                                         ; OPCODE_END
0000038: 10                                         ; OPCODE_I32_CONST
0000039: 03                                         ; i32 literal
000003a: 0b                                         ; OPCODE_DROP
0000015: 25                                         ; FIXUP func body size
0000013: 27                                         ; FIXUP section size
;; dump
0000000: 0061 736d 0c00 0000 0104 0140 0000 0302  
0000010: 0100 0a27 0125 0001 0001 0001 0010 0008  
0000020: 0200 0000 0001 0000 0000 0000 000f 1001  
0000030: 0b10 020b 0601 0f0f 1003 0b              
;;; STDOUT ;;)
