;;; FLAGS: -dv
(module
  (func
    (block
      (block
        (block (br_table 0 1 0 (i32.const 0)))
        ;; case 0
        (i32.const 1)
        (i32.const 2)
        (br 1)  ;; topmost block
      )
      ;; case 1
      ;; fallthrough
    )
    (i32.const 3)))
(;; STDOUT ;;;
0000000: 0061 736d                                  ; WASM_BINARY_MAGIC
0000004: 0a00 0000                                  ; WASM_BINARY_VERSION
0000008: 01                                         ; WASM_BINARY_SECTION_SIGNATURES
0000009: 01                                         ; num signatures
; signature 0
000000a: 00                                         ; num params
000000b: 00                                         ; result_type
000000c: 02                                         ; WASM_BINARY_SECTION_FUNCTIONS
000000d: 01                                         ; num functions
; function 0
000000e: 00                                         ; func flags
000000f: 0000                                       ; func signature index
0000011: 0000                                       ; func body size
0000013: 00                                         ; local decl count
0000014: 01                                         ; OPCODE_BLOCK
0000015: 01                                         ; num expressions
0000016: 01                                         ; OPCODE_BLOCK
0000017: 04                                         ; num expressions
0000018: 01                                         ; OPCODE_BLOCK
0000019: 01                                         ; num expressions
000001a: 08                                         ; OPCODE_BR_TABLE
000001b: 0200                                       ; num targets
000001d: 0000                                       ; break depth
000001f: 0100                                       ; break depth
0000021: 0000                                       ; break depth for default
0000023: 0a                                         ; OPCODE_I32_CONST
0000024: 00                                         ; i32 literal
0000025: 0a                                         ; OPCODE_I32_CONST
0000026: 01                                         ; i32 literal
0000027: 0a                                         ; OPCODE_I32_CONST
0000028: 02                                         ; i32 literal
0000029: 06                                         ; OPCODE_BR
000002a: 00                                         ; break arity
000002b: 01                                         ; break depth
000002c: 0a                                         ; OPCODE_I32_CONST
000002d: 03                                         ; i32 literal
0000011: 1b00                                       ; FIXUP func body size
000002e: 06                                         ; WASM_BINARY_SECTION_END
;; dump
0000000: 0061 736d 0a00 0000 0101 0000 0201 0000  
0000010: 001b 0000 0101 0104 0101 0802 0000 0001  
0000020: 0000 000a 000a 010a 0206 0001 0a03 06    
;;; STDOUT ;;)
