;;; FLAGS: -dv
(module
  (func
    (block
      (block
        (block (br_table 0 1 0 (i32.const 0)))
        ;; case 0
        (i32.const 1)
        (i32.const 2)
        (br 1)  ;; topmost block
      )
      ;; case 1
      ;; fallthrough
    )
    (i32.const 3)))
(;; STDOUT ;;;
0000000: 0061 736d                                  ; WASM_BINARY_MAGIC
0000004: 0a00 0000                                  ; WASM_BINARY_VERSION
0000008: 01                                         ; WASM_BINARY_SECTION_SIGNATURES
0000009: 01                                         ; num signatures
; signature 0
000000a: 00                                         ; num params
000000b: 00                                         ; result_type
000000c: 0a                                         ; WASM_BINARY_SECTION_FUNCTION_SIGNATURES
000000d: 01                                         ; num functions
000000e: 00                                         ; function 0 signature index
000000f: 0b                                         ; WASM_BINARY_SECTION_FUNCTION_BODIES
0000010: 01                                         ; num functions
; function body 0
0000011: 00                                         ; func body size (guess)
0000012: 00                                         ; local decl count
0000013: 01                                         ; OPCODE_BLOCK
0000014: 01                                         ; num expressions
0000015: 01                                         ; OPCODE_BLOCK
0000016: 04                                         ; num expressions
0000017: 01                                         ; OPCODE_BLOCK
0000018: 01                                         ; num expressions
0000019: 08                                         ; OPCODE_BR_TABLE
000001a: 02                                         ; num targets
000001b: 0000 0000                                  ; break depth
000001f: 0100 0000                                  ; break depth
0000023: 0000 0000                                  ; break depth for default
0000027: 0a                                         ; OPCODE_I32_CONST
0000028: 00                                         ; i32 literal
0000029: 0a                                         ; OPCODE_I32_CONST
000002a: 01                                         ; i32 literal
000002b: 0a                                         ; OPCODE_I32_CONST
000002c: 02                                         ; i32 literal
000002d: 06                                         ; OPCODE_BR
000002e: 01                                         ; break depth
000002f: 00                                         ; OPCODE_NOP
0000030: 0a                                         ; OPCODE_I32_CONST
0000031: 03                                         ; i32 literal
0000011: 20                                         ; FIXUP func body size
0000032: 06                                         ; WASM_BINARY_SECTION_END
;; dump
0000000: 0061 736d 0a00 0000 0101 0000 0a01 000b  
0000010: 0120 0001 0101 0401 0108 0200 0000 0001  
0000020: 0000 0000 0000 000a 000a 010a 0206 0100  
0000030: 0a03 06                                  
;;; STDOUT ;;)
