;;; FLAGS: -dv
(module
  (func
    (block
      (block
        (block (br_table 0 1 0 (i32.const 0)))
        ;; case 0
        (i32.const 1)
        (i32.const 2)
        (br 1)  ;; topmost block
      )
      ;; case 1
      ;; fallthrough
    )
    (i32.const 3)))
(;; STDOUT ;;;
0000000: 0061 736d                                  ; WASM_BINARY_MAGIC
0000004: 0b00 0000                                  ; WASM_BINARY_VERSION
; section "type"
0000008: 04                                         ; string length
0000009: 7479 7065                                  ; section id: "type"
000000d: 00                                         ; section size (guess)
000000e: 01                                         ; num types
; type 0
000000f: 40                                         ; function form
0000010: 00                                         ; num params
0000011: 00                                         ; num results
000000d: 04                                         ; FIXUP section size
; section "function"
0000012: 08                                         ; string length
0000013: 6675 6e63 7469 6f6e                        ; section id: "function"
000001b: 00                                         ; section size (guess)
000001c: 01                                         ; num functions
000001d: 00                                         ; function 0 signature index
000001b: 02                                         ; FIXUP section size
; section "code"
000001e: 04                                         ; string length
000001f: 636f 6465                                  ; section id: "code"
0000023: 00                                         ; section size (guess)
0000024: 01                                         ; num functions
; function body 0
0000025: 00                                         ; func body size (guess)
0000026: 00                                         ; local decl count
0000027: 01                                         ; OPCODE_BLOCK
0000028: 01                                         ; OPCODE_BLOCK
0000029: 01                                         ; OPCODE_BLOCK
000002a: 00                                         ; OPCODE_NOP
000002b: 10                                         ; OPCODE_I32_CONST
000002c: 00                                         ; i32 literal
000002d: 08                                         ; OPCODE_BR_TABLE
000002e: 02                                         ; num targets
000002f: 0000 0000                                  ; break depth
0000033: 0100 0000                                  ; break depth
0000037: 0000 0000                                  ; break depth for default
000003b: 0f                                         ; OPCODE_END
000003c: 10                                         ; OPCODE_I32_CONST
000003d: 01                                         ; i32 literal
000003e: 10                                         ; OPCODE_I32_CONST
000003f: 02                                         ; i32 literal
0000040: 00                                         ; OPCODE_NOP
0000041: 06                                         ; OPCODE_BR
0000042: 01                                         ; break depth
0000043: 0f                                         ; OPCODE_END
0000044: 0f                                         ; OPCODE_END
0000045: 10                                         ; OPCODE_I32_CONST
0000046: 03                                         ; i32 literal
0000025: 21                                         ; FIXUP func body size
0000023: 23                                         ; FIXUP section size
;; dump
0000000: 0061 736d 0b00 0000 0474 7970 6504 0140  
0000010: 0000 0866 756e 6374 696f 6e02 0100 0463  
0000020: 6f64 6523 0121 0001 0101 0010 0008 0200  
0000030: 0000 0001 0000 0000 0000 000f 1001 1002  
0000040: 0006 010f 0f10 03                        
;;; STDOUT ;;)
