;;; FLAGS: -dv
(module
  (func
    (block
      (block
        (block (br_table 0 1 0 (i32.const 0)))
        ;; case 0
        (i32.const 1)
        (i32.const 2)
        (br 1)  ;; topmost block
      )
      ;; case 1
      ;; fallthrough
    )
    (i32.const 3)))
(;; STDOUT ;;;
0000000: 0061 736d                                  ; WASM_BINARY_MAGIC
0000004: 0a00 0000                                  ; WASM_BINARY_VERSION
0000008: 01                                         ; WASM_BINARY_SECTION_SIGNATURES
0000009: 01                                         ; num signatures
; signature 0
000000a: 00                                         ; num params
000000b: 00                                         ; result_type
000000c: 02                                         ; WASM_BINARY_SECTION_FUNCTIONS
000000d: 01                                         ; num functions
; function 0
000000e: 00                                         ; func flags
000000f: 0000                                       ; func signature index
0000011: 0000                                       ; func body size
0000013: 00                                         ; local decl count
0000014: 01                                         ; OPCODE_BLOCK
0000015: 01                                         ; num expressions
0000016: 01                                         ; OPCODE_BLOCK
0000017: 04                                         ; num expressions
0000018: 01                                         ; OPCODE_BLOCK
0000019: 01                                         ; num expressions
000001a: 08                                         ; OPCODE_BR_TABLE
000001b: 02                                         ; num targets
000001c: 0000 0000                                  ; break depth
0000020: 0100 0000                                  ; break depth
0000024: 0000 0000                                  ; break depth for default
0000028: 0a                                         ; OPCODE_I32_CONST
0000029: 00                                         ; i32 literal
000002a: 0a                                         ; OPCODE_I32_CONST
000002b: 01                                         ; i32 literal
000002c: 0a                                         ; OPCODE_I32_CONST
000002d: 02                                         ; i32 literal
000002e: 06                                         ; OPCODE_BR
000002f: 01                                         ; break depth
0000030: 00                                         ; OPCODE_NOP
0000031: 0a                                         ; OPCODE_I32_CONST
0000032: 03                                         ; i32 literal
0000011: 2000                                       ; FIXUP func body size
0000033: 06                                         ; WASM_BINARY_SECTION_END
;; dump
0000000: 0061 736d 0a00 0000 0101 0000 0201 0000  
0000010: 0020 0000 0101 0104 0101 0802 0000 0000  
0000020: 0100 0000 0000 0000 0a00 0a01 0a02 0601  
0000030: 000a 0306                                
;;; STDOUT ;;)
