;;; FLAGS: -dv
(module
  (func
    (block
      (block
        (block (br_table 0 1 0 (i32.const 0)))
        ;; case 0
        (i32.const 1)
        (i32.const 2)
        (br 1)  ;; topmost block
      )
      ;; case 1
      ;; fallthrough
    )
    (i32.const 3)))
(;; STDOUT ;;;
0000000: 0061 736d                                  ; WASM_BINARY_MAGIC
0000004: 0a00 0000                                  ; WASM_BINARY_VERSION
0000008: 01                                         ; WASM_BINARY_SECTION_SIGNATURES
0000009: 01                                         ; num signatures
; signature 0
000000a: 00                                         ; num params
000000b: 00                                         ; result_type
000000c: 02                                         ; WASM_BINARY_SECTION_FUNCTIONS
000000d: 01                                         ; num functions
; function 0
000000e: 00                                         ; func flags
000000f: 0000                                       ; func signature index
0000011: 0000                                       ; func body size
0000013: 01                                         ; OPCODE_BLOCK
0000014: 01                                         ; num expressions
0000015: 01                                         ; OPCODE_BLOCK
0000016: 04                                         ; num expressions
0000017: 01                                         ; OPCODE_BLOCK
0000018: 01                                         ; num expressions
0000019: 08                                         ; OPCODE_BR_TABLE
000001a: 0200                                       ; num targets
000001c: 0000                                       ; break depth
000001e: 0100                                       ; break depth
0000020: 0000                                       ; break depth for default
0000022: 0a                                         ; OPCODE_I32_CONST
0000023: 00                                         ; i32 literal
0000024: 0a                                         ; OPCODE_I32_CONST
0000025: 01                                         ; i32 literal
0000026: 0a                                         ; OPCODE_I32_CONST
0000027: 02                                         ; i32 literal
0000028: 06                                         ; OPCODE_BR
0000029: 01                                         ; break depth
000002a: 00                                         ; OPCODE_NOP
000002b: 0a                                         ; OPCODE_I32_CONST
000002c: 03                                         ; i32 literal
0000011: 1a00                                       ; FIXUP func body size
000002d: 06                                         ; WASM_BINARY_SECTION_END
;; dump
0000000: 0061 736d 0a00 0000 0101 0000 0201 0000  
0000010: 001a 0001 0101 0401 0108 0200 0000 0100  
0000020: 0000 0a00 0a01 0a02 0601 000a 0306       
;;; STDOUT ;;)
