;;; FLAGS: -dv

;; Make sure the function table entries skip over the imported functions.
(module
  (type $f_v (func (param f32)))

  ;; function 0
  (import $imported "foo" "bar" (result i32))

  ;; function 1
  (func $indirect (param f32)
    (nop))

  ;; function 2
  (func $caller
    (call_indirect $f_v (i32.const 0) (f32.const 1.0)))

  ;; should be function 1.
  (table $indirect))
(;; STDOUT ;;;
0000000: 0061 736d                                  ; WASM_BINARY_MAGIC
0000004: 0a00 0000                                  ; WASM_BINARY_VERSION
0000008: 01                                         ; WASM_BINARY_SECTION_SIGNATURES
0000009: 03                                         ; num signatures
; signature 0
000000a: 01                                         ; num params
000000b: 00                                         ; result_type
000000c: 03                                         ; param type
; signature 1
000000d: 00                                         ; num params
000000e: 01                                         ; result_type
; signature 2
000000f: 00                                         ; num params
0000010: 00                                         ; result_type
0000011: 08                                         ; WASM_BINARY_SECTION_IMPORTS
0000012: 01                                         ; num imports
; import header 0
0000013: 01                                         ; import signature index
0000014: 0000 0000                                  ; import module name offset
0000018: 0000 0000                                  ; import function name offset
000001c: 02                                         ; WASM_BINARY_SECTION_FUNCTIONS
000001d: 02                                         ; num functions
; function 0
000001e: 00                                         ; func flags
000001f: 0000                                       ; func signature index
0000021: 0000                                       ; func body size
0000023: 00                                         ; local decl count
0000024: 00                                         ; OPCODE_NOP
0000021: 0200                                       ; FIXUP func body size
; function 1
0000025: 00                                         ; func flags
0000026: 0200                                       ; func signature index
0000028: 0000                                       ; func body size
000002a: 00                                         ; local decl count
000002b: 13                                         ; OPCODE_CALL_INDIRECT
000002c: 00                                         ; signature index
000002d: 0a                                         ; OPCODE_I32_CONST
000002e: 00                                         ; i32 literal
000002f: 0d                                         ; OPCODE_F32_CONST
0000030: 0000 803f                                  ; f32 literal
0000028: 0a00                                       ; FIXUP func body size
0000034: 05                                         ; WASM_BINARY_SECTION_FUNCTION_TABLE
0000035: 01                                         ; num function table entries
0000036: 00                                         ; function table entry
0000037: 06                                         ; WASM_BINARY_SECTION_END
; import 0
0000014: 3800 0000                                  ; FIXUP import module name offset
0000038: 666f 6f                                    ; import module name
000003b: 00                                         ; \0
0000018: 3c00 0000                                  ; FIXUP import function name offset
000003c: 6261 72                                    ; import function name
000003f: 00                                         ; \0
;; dump
0000000: 0061 736d 0a00 0000 0103 0100 0300 0100  
0000010: 0008 0101 3800 0000 3c00 0000 0202 0000  
0000020: 0002 0000 0000 0200 0a00 0013 000a 000d  
0000030: 0000 803f 0501 0006 666f 6f00 6261 7200  
;;; STDOUT ;;)
