;;; FLAGS: -dv
(module
  (import "foo" "bar" (param i32 f32) (result i32))
  (func (result i32)
    ;; input import 0 -> output func 0
    (call_import 0 (i32.const 1) (f32.const 2))
    ;; input func 0 -> output func 1
    ;; imports and funcs have different name/number spaces in the input format,
    ;; but use the same number-space for the output format. Imports always come
    ;; first.
    (call 0)))
(;; STDOUT ;;;
0000000: 0061 736d                                  ; WASM_BINARY_MAGIC
0000004: 0a00 0000                                  ; WASM_BINARY_VERSION
0000008: 01                                         ; WASM_BINARY_SECTION_SIGNATURES
0000009: 02                                         ; num signatures
; signature 0
000000a: 02                                         ; num params
000000b: 01                                         ; result_type
000000c: 01                                         ; param type
000000d: 03                                         ; param type
; signature 1
000000e: 00                                         ; num params
000000f: 01                                         ; result_type
0000010: 08                                         ; WASM_BINARY_SECTION_IMPORTS
0000011: 01                                         ; num imports
; import header 0
0000012: 00                                         ; import signature index
0000013: 03                                         ; string length
0000014: 666f 6f                                    ; import module name
0000017: 03                                         ; string length
0000018: 6261 72                                    ; import function name
000001b: 0a                                         ; WASM_BINARY_SECTION_FUNCTION_SIGNATURES
000001c: 01                                         ; num functions
000001d: 01                                         ; function 0 signature index
000001e: 0b                                         ; WASM_BINARY_SECTION_FUNCTION_BODIES
000001f: 01                                         ; num functions
; function body 0
0000020: 00                                         ; func body size (guess)
0000021: 00                                         ; local decl count
0000022: 1f                                         ; OPCODE_CALL_IMPORT
0000023: 00                                         ; import index
0000024: 0a                                         ; OPCODE_I32_CONST
0000025: 01                                         ; i32 literal
0000026: 0d                                         ; OPCODE_F32_CONST
0000027: 0000 0040                                  ; f32 literal
000002b: 12                                         ; OPCODE_CALL_FUNCTION
000002c: 00                                         ; func index
0000020: 0c                                         ; FIXUP func body size
000002d: 06                                         ; WASM_BINARY_SECTION_END
;; dump
0000000: 0061 736d 0a00 0000 0102 0201 0103 0001  
0000010: 0801 0003 666f 6f03 6261 720a 0101 0b01  
0000020: 0c00 1f00 0a01 0d00 0000 4012 0006       
;;; STDOUT ;;)
