;;; FLAGS: -dv

;; Make sure the function table entries skip over the imported functions.
(module
  (type $f_v (func (param f32)))

  ;; function 0
  (import $imported "foo" "bar" (result i32))

  ;; function 1
  (func $indirect (param f32)
    (nop))

  ;; function 2
  (func $caller
    (call_indirect $f_v (i32.const 0) (f32.const 1.0)))

  ;; should be function 1.
  (table $indirect))
(;; STDOUT ;;;
0000000: 0061 736d                                  ; WASM_BINARY_MAGIC
0000004: 0a00 0000                                  ; WASM_BINARY_VERSION
0000008: 01                                         ; WASM_BINARY_SECTION_SIGNATURES
0000009: 03                                         ; num signatures
; signature 0
000000a: 01                                         ; num params
000000b: 00                                         ; result_type
000000c: 03                                         ; param type
; signature 1
000000d: 00                                         ; num params
000000e: 01                                         ; result_type
; signature 2
000000f: 00                                         ; num params
0000010: 00                                         ; result_type
0000011: 08                                         ; WASM_BINARY_SECTION_IMPORTS
0000012: 01                                         ; num imports
; import header 0
0000013: 01                                         ; import signature index
0000014: 03                                         ; string length
0000015: 666f 6f                                    ; import module name
0000018: 03                                         ; string length
0000019: 6261 72                                    ; import function name
000001c: 0a                                         ; WASM_BINARY_SECTION_FUNCTION_SIGNATURES
000001d: 02                                         ; num functions
000001e: 00                                         ; function 0 signature index
000001f: 02                                         ; function 1 signature index
0000020: 0b                                         ; WASM_BINARY_SECTION_FUNCTION_BODIES
0000021: 02                                         ; num functions
; function body 0
0000022: 00                                         ; func body size (guess)
0000023: 00                                         ; local decl count
0000024: 00                                         ; OPCODE_NOP
0000022: 02                                         ; FIXUP func body size
; function body 1
0000025: 00                                         ; func body size (guess)
0000026: 00                                         ; local decl count
0000027: 13                                         ; OPCODE_CALL_INDIRECT
0000028: 00                                         ; signature index
0000029: 0a                                         ; OPCODE_I32_CONST
000002a: 00                                         ; i32 literal
000002b: 0d                                         ; OPCODE_F32_CONST
000002c: 0000 803f                                  ; f32 literal
0000025: 0a                                         ; FIXUP func body size
0000030: 05                                         ; WASM_BINARY_SECTION_FUNCTION_TABLE
0000031: 01                                         ; num function table entries
0000032: 00                                         ; function table entry
0000033: 06                                         ; WASM_BINARY_SECTION_END
;; dump
0000000: 0061 736d 0a00 0000 0103 0100 0300 0100  
0000010: 0008 0101 0366 6f6f 0362 6172 0a02 0002  
0000020: 0b02 0200 000a 0013 000a 000d 0000 803f  
0000030: 0501 0006                                
;;; STDOUT ;;)
