;;; FLAGS: -dv
(module
  (import "foo" "bar" (param i32 f32) (result i32))
  (func (result i32)
    ;; input import 0 -> output func 0
    (call_import 0 (i32.const 1) (f32.const 2))
    ;; input func 0 -> output func 1
    ;; imports and funcs have different name/number spaces in the input format,
    ;; but use the same number-space for the output format. Imports always come
    ;; first.
    (call 0)))
(;; STDOUT ;;;
0000000: 01                                         ; WASM_SECTION_SIGNATURES
0000001: 02                                         ; num signatures
; signature 0
0000002: 02                                         ; num params
0000003: 01                                         ; result_type
0000004: 01                                         ; param type
0000005: 03                                         ; param type
; signature 1
0000006: 00                                         ; num params
0000007: 01                                         ; result_type
0000008: 08                                         ; WASM_SECTION_IMPORTS
0000009: 01                                         ; num imports
; import header 0
000000a: 0000                                       ; import signature index
000000c: 0000 0000                                  ; import module name offset
0000010: 0000 0000                                  ; import function name offset
0000014: 02                                         ; WASM_SECTION_FUNCTIONS
0000015: 01                                         ; num functions
; function 0
0000016: 00                                         ; func flags
0000017: 0100                                       ; func signature index
0000019: 0000                                       ; func body size
000001b: 1f                                         ; OPCODE_CALL_IMPORT
000001c: 00                                         ; import index
000001d: 09                                         ; OPCODE_I8_CONST
000001e: 01                                         ; u8 literal
000001f: 0d                                         ; OPCODE_F32_CONST
0000020: 0000 0040                                  ; f32 literal
0000024: 12                                         ; OPCODE_CALL_FUNCTION
0000025: 00                                         ; func index
0000019: 0b00                                       ; FIXUP func body size
0000026: 06                                         ; WASM_SECTION_END
; import 0
000000c: 2700 0000                                  ; FIXUP import module name offset
0000027: 666f 6f                                    ; import module name
000002a: 00                                         ; \0
0000010: 2b00 0000                                  ; FIXUP import function name offset
000002b: 6261 72                                    ; import function name
000002e: 00                                         ; \0
;; dump
0000000: 0102 0201 0103 0001 0801 0000 2700 0000  
0000010: 2b00 0000 0201 0001 000b 001f 0009 010d  
0000020: 0000 0040 1200 0666 6f6f 0062 6172 00    
;;; STDOUT ;;)
