;;; FLAGS: -dv
(module
  (type $t (func (param i32)))
  (func $f (type $t)
    (call_indirect $t (i32.const 0) (i32.const 0)))
  (table $f))
(;; STDOUT ;;;
0000000: 0061 736d                                  ; WASM_BINARY_MAGIC
0000004: 0a00 0000                                  ; WASM_BINARY_VERSION
0000008: 01                                         ; WASM_BINARY_SECTION_SIGNATURES
0000009: 01                                         ; num signatures
; signature 0
000000a: 01                                         ; num params
000000b: 00                                         ; result_type
000000c: 01                                         ; param type
000000d: 02                                         ; WASM_BINARY_SECTION_FUNCTIONS
000000e: 01                                         ; num functions
; function 0
000000f: 00                                         ; func flags
0000010: 0000                                       ; func signature index
0000012: 0000                                       ; func body size
0000014: 00                                         ; local decl count
0000015: 13                                         ; OPCODE_CALL_INDIRECT
0000016: 00                                         ; signature index
0000017: 0a                                         ; OPCODE_I32_CONST
0000018: 00                                         ; i32 literal
0000019: 0a                                         ; OPCODE_I32_CONST
000001a: 00                                         ; i32 literal
0000012: 0700                                       ; FIXUP func body size
000001b: 05                                         ; WASM_BINARY_SECTION_FUNCTION_TABLE
000001c: 01                                         ; num function table entries
000001d: 0000                                       ; function table entry
000001f: 06                                         ; WASM_BINARY_SECTION_END
;; dump
0000000: 0061 736d 0a00 0000 0101 0100 0102 0100  
0000010: 0000 0700 0013 000a 000a 0005 0100 0006  
;;; STDOUT ;;)
