;;; FLAGS: -dv
(module
  (type $t (func (param i32)))
  (func $f (type $t)
    (call_indirect $t (i32.const 0) (i32.const 0)))
  (table anyfunc (elem $f)))
(;; STDOUT ;;;
0000000: 0061 736d                                  ; WASM_BINARY_MAGIC
0000004: 0c00 0000                                  ; WASM_BINARY_VERSION
; section "type"
0000008: 04                                         ; string length
0000009: 7479 7065                                  ; section id: "type"
000000d: 00                                         ; section size (guess)
000000e: 01                                         ; num types
; type 0
000000f: 40                                         ; function form
0000010: 01                                         ; num params
0000011: 01                                         ; param type
0000012: 00                                         ; num results
000000d: 05                                         ; FIXUP section size
; section "function"
0000013: 08                                         ; string length
0000014: 6675 6e63 7469 6f6e                        ; section id: "function"
000001c: 00                                         ; section size (guess)
000001d: 01                                         ; num functions
000001e: 00                                         ; function 0 signature index
000001c: 02                                         ; FIXUP section size
; section "table"
000001f: 05                                         ; string length
0000020: 7461 626c 65                               ; section id: "table"
0000025: 00                                         ; section size (guess)
0000026: 20                                         ; table elem type
0000027: 01                                         ; table flags
0000028: 01                                         ; table initial elems
0000029: 01                                         ; table max elems
0000025: 04                                         ; FIXUP section size
; section "code"
000002a: 04                                         ; string length
000002b: 636f 6465                                  ; section id: "code"
000002f: 00                                         ; section size (guess)
0000030: 01                                         ; num functions
; function body 0
0000031: 00                                         ; func body size (guess)
0000032: 00                                         ; local decl count
0000033: 10                                         ; OPCODE_I32_CONST
0000034: 00                                         ; i32 literal
0000035: 10                                         ; OPCODE_I32_CONST
0000036: 00                                         ; i32 literal
0000037: 17                                         ; OPCODE_CALL_INDIRECT
0000038: 00                                         ; signature index
0000031: 07                                         ; FIXUP func body size
000002f: 09                                         ; FIXUP section size
; section "elem"
0000039: 04                                         ; string length
000003a: 656c 656d                                  ; section id: "elem"
000003e: 00                                         ; section size (guess)
000003f: 01                                         ; num elem segments
; elem segment header 0
0000040: 00                                         ; table index
0000041: 10                                         ; OPCODE_I32_CONST
0000042: 00                                         ; i32 literal
0000043: 0f                                         ; OPCODE_END
0000044: 01                                         ; num function indices
0000045: 00                                         ; function index
000003e: 07                                         ; FIXUP section size
;; dump
0000000: 0061 736d 0c00 0000 0474 7970 6505 0140  
0000010: 0101 0008 6675 6e63 7469 6f6e 0201 0005  
0000020: 7461 626c 6504 2001 0101 0463 6f64 6509  
0000030: 0107 0010 0010 0017 0004 656c 656d 0701  
0000040: 0010 000f 0100                           
;;; STDOUT ;;)
