;;; FLAGS: -dv
(module
  (func (param i32)
    (call 0 (i32.const 1))))
(;; STDOUT ;;;
0000000: 01                                         ; WASM_SECTION_SIGNATURES
0000001: 01                                         ; num signatures
; signature 0
0000002: 01                                         ; num params
0000003: 00                                         ; result_type
0000004: 01                                         ; param type
0000005: 02                                         ; WASM_SECTION_FUNCTIONS
0000006: 01                                         ; num functions
; function 0
0000007: 00                                         ; func flags
0000008: 0000                                       ; func signature index
000000a: 0000                                       ; func body size
000000c: 12                                         ; OPCODE_CALL_FUNCTION
000000d: 00                                         ; func index
000000e: 09                                         ; OPCODE_I8_CONST
000000f: 01                                         ; u8 literal
000000a: 0400                                       ; FIXUP func body size
0000010: 06                                         ; WASM_SECTION_END
;;; STDOUT ;;)
