;;; FLAGS: -dv
(module
  (type $t (func (param i32)))
  (func $f (type $t)
    (call_indirect $t (i32.const 0) (i32.const 0)))
  (table $f))
(;; STDOUT ;;;
0000000: 0061 736d                                  ; WASM_BINARY_MAGIC
0000004: 0b00 0000                                  ; WASM_BINARY_VERSION
; section "type"
0000008: 04                                         ; string length
0000009: 7479 7065                                  ; section id: "type"
000000d: 00                                         ; section size (guess)
000000e: 01                                         ; num types
; type 0
000000f: 40                                         ; function form
0000010: 01                                         ; num params
0000011: 01                                         ; param type
0000012: 00                                         ; num results
000000d: 05                                         ; FIXUP section size
; section "function"
0000013: 08                                         ; string length
0000014: 6675 6e63 7469 6f6e                        ; section id: "function"
000001c: 00                                         ; section size (guess)
000001d: 01                                         ; num functions
000001e: 00                                         ; function 0 signature index
000001c: 02                                         ; FIXUP section size
; section "table"
000001f: 05                                         ; string length
0000020: 7461 626c 65                               ; section id: "table"
0000025: 00                                         ; section size (guess)
0000026: 01                                         ; num function table entries
0000027: 00                                         ; function table entry
0000025: 02                                         ; FIXUP section size
; section "code"
0000028: 04                                         ; string length
0000029: 636f 6465                                  ; section id: "code"
000002d: 00                                         ; section size (guess)
000002e: 01                                         ; num functions
; function body 0
000002f: 00                                         ; func body size (guess)
0000030: 00                                         ; local decl count
0000031: 10                                         ; OPCODE_I32_CONST
0000032: 00                                         ; i32 literal
0000033: 10                                         ; OPCODE_I32_CONST
0000034: 00                                         ; i32 literal
0000035: 17                                         ; OPCODE_CALL_INDIRECT
0000036: 01                                         ; call_indirect arity
0000037: 00                                         ; signature index
000002f: 08                                         ; FIXUP func body size
000002d: 0a                                         ; FIXUP section size
;; dump
0000000: 0061 736d 0b00 0000 0474 7970 6505 0140  
0000010: 0101 0008 6675 6e63 7469 6f6e 0201 0005  
0000020: 7461 626c 6502 0100 0463 6f64 650a 0108  
0000030: 0010 0010 0017 0100                      
;;; STDOUT ;;)
