;;; FLAGS: -dv

;; Make sure the function table entries skip over the imported functions.
(module
  (type $f_v (func (param f32)))

  ;; function 0
  (import $imported "foo" "bar" (result i32))

  ;; function 1
  (func $indirect (param f32)
    (nop))

  ;; function 2
  (func $caller
    (call_indirect $f_v (i32.const 0) (f32.const 1.0)))

  ;; should be function 1.
  (table $indirect))
(;; STDOUT ;;;
0000000: 01                                         ; WASM_BINARY_SECTION_SIGNATURES
0000001: 03                                         ; num signatures
; signature 0
0000002: 01                                         ; num params
0000003: 00                                         ; result_type
0000004: 03                                         ; param type
; signature 1
0000005: 00                                         ; num params
0000006: 01                                         ; result_type
; signature 2
0000007: 00                                         ; num params
0000008: 00                                         ; result_type
0000009: 08                                         ; WASM_BINARY_SECTION_IMPORTS
000000a: 01                                         ; num imports
; import header 0
000000b: 0100                                       ; import signature index
000000d: 0000 0000                                  ; import module name offset
0000011: 0000 0000                                  ; import function name offset
0000015: 02                                         ; WASM_BINARY_SECTION_FUNCTIONS
0000016: 02                                         ; num functions
; function 0
0000017: 00                                         ; func flags
0000018: 0000                                       ; func signature index
000001a: 0000                                       ; func body size
000001c: 00                                         ; OPCODE_NOP
000001a: 0100                                       ; FIXUP func body size
; function 1
000001d: 00                                         ; func flags
000001e: 0200                                       ; func signature index
0000020: 0000                                       ; func body size
0000022: 13                                         ; OPCODE_CALL_INDIRECT
0000023: 00                                         ; signature index
0000024: 09                                         ; OPCODE_I8_CONST
0000025: 00                                         ; u8 literal
0000026: 0d                                         ; OPCODE_F32_CONST
0000027: 0000 803f                                  ; f32 literal
0000020: 0900                                       ; FIXUP func body size
000002b: 05                                         ; WASM_BINARY_SECTION_FUNCTION_TABLE
000002c: 01                                         ; num function table entries
000002d: 0000                                       ; function table entry
000002f: 06                                         ; WASM_BINARY_SECTION_END
; import 0
000000d: 3000 0000                                  ; FIXUP import module name offset
0000030: 666f 6f                                    ; import module name
0000033: 00                                         ; \0
0000011: 3400 0000                                  ; FIXUP import function name offset
0000034: 6261 72                                    ; import function name
0000037: 00                                         ; \0
;; dump
0000000: 0103 0100 0300 0100 0008 0101 0030 0000  
0000010: 0034 0000 0002 0200 0000 0100 0000 0200  
0000020: 0900 1300 0900 0d00 0080 3f05 0100 0006  
0000030: 666f 6f00 6261 7200                      
;;; STDOUT ;;)
