;;; FLAGS: -dv
(module
  (import "foo" "bar" (param i32 f32) (result i32))
  (func (result i32)
    ;; input import 0 -> output func 0
    (call_import 0 (i32.const 1) (f32.const 2))
    ;; input func 0 -> output func 1
    ;; imports and funcs have different name/number spaces in the input format,
    ;; but use the same number-space for the output format. Imports always come
    ;; first.
    (call 0)))
(;; STDOUT ;;;
0000000: 0061 736d                                  ; WASM_BINARY_MAGIC
0000004: 0a00 0000                                  ; WASM_BINARY_VERSION
; section "signatures"
0000008: 00                                         ; section size (guess)
0000009: 0a                                         ; string length
000000a: 7369 676e 6174 7572 6573                   ; section id: "signatures"
0000014: 02                                         ; num signatures
; signature 0
0000015: 02                                         ; num params
0000016: 01                                         ; result_type
0000017: 01                                         ; param type
0000018: 03                                         ; param type
; signature 1
0000019: 00                                         ; num params
000001a: 01                                         ; result_type
0000008: 12                                         ; FIXUP section size
; section "import_table"
000001b: 00                                         ; section size (guess)
000001c: 0c                                         ; string length
000001d: 696d 706f 7274 5f74 6162 6c65              ; section id: "import_table"
0000029: 01                                         ; num imports
; import header 0
000002a: 00                                         ; import signature index
000002b: 03                                         ; string length
000002c: 666f 6f                                  foo  ; import module name
000002f: 03                                         ; string length
0000030: 6261 72                                  bar  ; import function name
000001b: 17                                         ; FIXUP section size
; section "function_signatures"
0000033: 00                                         ; section size (guess)
0000034: 13                                         ; string length
0000035: 6675 6e63 7469 6f6e 5f73 6967 6e61 7475  
0000045: 7265 73                                    ; section id: "function_signatures"
0000048: 01                                         ; num functions
0000049: 01                                         ; function 0 signature index
0000033: 16                                         ; FIXUP section size
; section "function_bodies"
000004a: 00                                         ; section size (guess)
000004b: 0f                                         ; string length
000004c: 6675 6e63 7469 6f6e 5f62 6f64 6965 73      ; section id: "function_bodies"
000005b: 01                                         ; num functions
; function body 0
000005c: 00                                         ; func body size (guess)
000005d: 00                                         ; local decl count
000005e: 1f                                         ; OPCODE_CALL_IMPORT
000005f: 00                                         ; import index
0000060: 0a                                         ; OPCODE_I32_CONST
0000061: 01                                         ; i32 literal
0000062: 0d                                         ; OPCODE_F32_CONST
0000063: 0000 0040                                  ; f32 literal
0000067: 12                                         ; OPCODE_CALL_FUNCTION
0000068: 00                                         ; func index
000005c: 0c                                         ; FIXUP func body size
000004a: 1e                                         ; FIXUP section size
; section "end"
0000069: 00                                         ; section size (guess)
000006a: 03                                         ; string length
000006b: 656e 64                                    ; section id: "end"
0000069: 04                                         ; FIXUP section size
;; dump
0000000: 0061 736d 0a00 0000 120a 7369 676e 6174  
0000010: 7572 6573 0202 0101 0300 0117 0c69 6d70  
0000020: 6f72 745f 7461 626c 6501 0003 666f 6f03  
0000030: 6261 7216 1366 756e 6374 696f 6e5f 7369  
0000040: 676e 6174 7572 6573 0101 1e0f 6675 6e63  
0000050: 7469 6f6e 5f62 6f64 6965 7301 0c00 1f00  
0000060: 0a01 0d00 0000 4012 0004 0365 6e64       
;;; STDOUT ;;)
