;;; FLAGS: -dv
(module
  (func (param i32)
    (call 0 (i32.const 1))))
(;; STDOUT ;;;
0000000: 0061 736d                                  ; WASM_BINARY_MAGIC
0000004: 0c00 0000                                  ; WASM_BINARY_VERSION
; section "TYPE" (1)
0000008: 01                                         ; section code
0000009: 00                                         ; section size (guess)
000000a: 01                                         ; num types
; type 0
000000b: 40                                         ; function form
000000c: 01                                         ; num params
000000d: 01                                         ; param type
000000e: 00                                         ; num results
0000009: 05                                         ; FIXUP section size
; section "FUNCTION" (3)
000000f: 03                                         ; section code
0000010: 00                                         ; section size (guess)
0000011: 01                                         ; num functions
0000012: 00                                         ; function 0 signature index
0000010: 02                                         ; FIXUP section size
; section "CODE" (10)
0000013: 0a                                         ; section code
0000014: 00                                         ; section size (guess)
0000015: 01                                         ; num functions
; function body 0
0000016: 00                                         ; func body size (guess)
0000017: 00                                         ; local decl count
0000018: 10                                         ; OPCODE_I32_CONST
0000019: 01                                         ; i32 literal
000001a: 16                                         ; OPCODE_CALL_FUNCTION
000001b: 00                                         ; func index
000001c: 0f                                         ; OPCODE_END
0000016: 06                                         ; FIXUP func body size
0000014: 08                                         ; FIXUP section size
;; dump
0000000: 0061 736d 0c00 0000 0105 0140 0101 0003  
0000010: 0201 000a 0801 0600 1001 1600 0f         
;;; STDOUT ;;)
