;;; FLAGS: -dv
(module
  (type $t (func (param i32)))
  (func $f (type $t)
    (call_indirect $t (i32.const 0) (i32.const 0)))
  (table $f))
(;; STDOUT ;;;
0000000: 01                                         ; WASM_BINARY_SECTION_SIGNATURES
0000001: 01                                         ; num signatures
; signature 0
0000002: 01                                         ; num params
0000003: 00                                         ; result_type
0000004: 01                                         ; param type
0000005: 02                                         ; WASM_BINARY_SECTION_FUNCTIONS
0000006: 01                                         ; num functions
; function 0
0000007: 00                                         ; func flags
0000008: 0000                                       ; func signature index
000000a: 0000                                       ; func body size
000000c: 13                                         ; OPCODE_CALL_INDIRECT
000000d: 00                                         ; signature index
000000e: 09                                         ; OPCODE_I8_CONST
000000f: 00                                         ; u8 literal
0000010: 09                                         ; OPCODE_I8_CONST
0000011: 00                                         ; u8 literal
000000a: 0600                                       ; FIXUP func body size
0000012: 05                                         ; WASM_BINARY_SECTION_FUNCTION_TABLE
0000013: 01                                         ; num function table entries
0000014: 0000                                       ; function table entry
0000016: 06                                         ; WASM_BINARY_SECTION_END
;; dump
0000000: 0101 0100 0102 0100 0000 0600 1300 0900  
0000010: 0900 0501 0000 06                        
;;; STDOUT ;;)
