;;; FLAGS: -dv

;; Make sure the function table entries skip over the imported functions.
(module
  (type $f_v (func (param f32)))

  ;; function 0
  (import $imported "foo" "bar" (result i32))

  ;; function 1
  (func $indirect (param f32)
    (nop))

  ;; function 2
  (func $caller
    (call_indirect $f_v (i32.const 0) (f32.const 1.0)))

  ;; should be function 1.
  (table $indirect))
(;; STDOUT ;;;
0000000: 0061 736d                                  ; WASM_BINARY_MAGIC
0000004: 0a00 0000                                  ; WASM_BINARY_VERSION
; section "signatures"
0000008: 00                                         ; section size (guess)
0000009: 0a                                         ; string length
000000a: 7369 676e 6174 7572 6573                   ; section id: "signatures"
0000014: 03                                         ; num signatures
; signature 0
0000015: 01                                         ; num params
0000016: 00                                         ; result_type
0000017: 03                                         ; param type
; signature 1
0000018: 00                                         ; num params
0000019: 01                                         ; result_type
; signature 2
000001a: 00                                         ; num params
000001b: 00                                         ; result_type
0000008: 13                                         ; FIXUP section size
; section "import_table"
000001c: 00                                         ; section size (guess)
000001d: 0c                                         ; string length
000001e: 696d 706f 7274 5f74 6162 6c65              ; section id: "import_table"
000002a: 01                                         ; num imports
; import header 0
000002b: 01                                         ; import signature index
000002c: 03                                         ; string length
000002d: 666f 6f                                    ; import module name
0000030: 03                                         ; string length
0000031: 6261 72                                    ; import function name
000001c: 17                                         ; FIXUP section size
; section "function_signatures"
0000034: 00                                         ; section size (guess)
0000035: 13                                         ; string length
0000036: 6675 6e63 7469 6f6e 5f73 6967 6e61 7475  
0000046: 7265 73                                    ; section id: "function_signatures"
0000049: 02                                         ; num functions
000004a: 00                                         ; function 0 signature index
000004b: 02                                         ; function 1 signature index
0000034: 17                                         ; FIXUP section size
; section "function_bodies"
000004c: 00                                         ; section size (guess)
000004d: 0f                                         ; string length
000004e: 6675 6e63 7469 6f6e 5f62 6f64 6965 73      ; section id: "function_bodies"
000005d: 02                                         ; num functions
; function body 0
000005e: 00                                         ; func body size (guess)
000005f: 00                                         ; local decl count
0000060: 00                                         ; OPCODE_NOP
000005e: 02                                         ; FIXUP func body size
; function body 1
0000061: 00                                         ; func body size (guess)
0000062: 00                                         ; local decl count
0000063: 13                                         ; OPCODE_CALL_INDIRECT
0000064: 00                                         ; signature index
0000065: 0a                                         ; OPCODE_I32_CONST
0000066: 00                                         ; i32 literal
0000067: 0d                                         ; OPCODE_F32_CONST
0000068: 0000 803f                                  ; f32 literal
0000061: 0a                                         ; FIXUP func body size
000004c: 1f                                         ; FIXUP section size
; section "function_table"
000006c: 00                                         ; section size (guess)
000006d: 0e                                         ; string length
000006e: 6675 6e63 7469 6f6e 5f74 6162 6c65         ; section id: "function_table"
000007c: 01                                         ; num function table entries
000007d: 00                                         ; function table entry
000006c: 11                                         ; FIXUP section size
; section "end"
000007e: 00                                         ; section size (guess)
000007f: 03                                         ; string length
0000080: 656e 64                                    ; section id: "end"
000007e: 04                                         ; FIXUP section size
;; dump
0000000: 0061 736d 0a00 0000 130a 7369 676e 6174  
0000010: 7572 6573 0301 0003 0001 0000 170c 696d  
0000020: 706f 7274 5f74 6162 6c65 0101 0366 6f6f  
0000030: 0362 6172 1713 6675 6e63 7469 6f6e 5f73  
0000040: 6967 6e61 7475 7265 7302 0002 1f0f 6675  
0000050: 6e63 7469 6f6e 5f62 6f64 6965 7302 0200  
0000060: 000a 0013 000a 000d 0000 803f 110e 6675  
0000070: 6e63 7469 6f6e 5f74 6162 6c65 0100 0403  
0000080: 656e 64                                  
;;; STDOUT ;;)
