;;; FLAGS: -dv
(module
  (import "foo" "bar" (param i32 f32) (result i32))
  (func (result i32)
    ;; call import 0
    (drop (call_import 0 (i32.const 1) (f32.const 2)))
    ;; call func 0
    (call 0)))
(;; STDOUT ;;;
0000000: 0061 736d                                  ; WASM_BINARY_MAGIC
0000004: 0c00 0000                                  ; WASM_BINARY_VERSION
; section "type"
0000008: 04                                         ; string length
0000009: 7479 7065                                  ; section id: "type"
000000d: 00                                         ; section size (guess)
000000e: 02                                         ; num types
; type 0
000000f: 40                                         ; function form
0000010: 02                                         ; num params
0000011: 01                                         ; param type
0000012: 03                                         ; param type
0000013: 01                                         ; num results
0000014: 01                                         ; result_type
; type 1
0000015: 40                                         ; function form
0000016: 00                                         ; num params
0000017: 01                                         ; num results
0000018: 01                                         ; result_type
000000d: 0b                                         ; FIXUP section size
; section "import"
0000019: 06                                         ; string length
000001a: 696d 706f 7274                             ; section id: "import"
0000020: 00                                         ; section size (guess)
0000021: 01                                         ; num imports
; import header 0
0000022: 00                                         ; import signature index
0000023: 03                                         ; string length
0000024: 666f 6f                                  foo  ; import module name
0000027: 03                                         ; string length
0000028: 6261 72                                  bar  ; import function name
0000020: 0a                                         ; FIXUP section size
; section "function"
000002b: 08                                         ; string length
000002c: 6675 6e63 7469 6f6e                        ; section id: "function"
0000034: 00                                         ; section size (guess)
0000035: 01                                         ; num functions
0000036: 01                                         ; function 0 signature index
0000034: 02                                         ; FIXUP section size
; section "code"
0000037: 04                                         ; string length
0000038: 636f 6465                                  ; section id: "code"
000003c: 00                                         ; section size (guess)
000003d: 01                                         ; num functions
; function body 0
000003e: 00                                         ; func body size (guess)
000003f: 00                                         ; local decl count
0000040: 10                                         ; OPCODE_I32_CONST
0000041: 01                                         ; i32 literal
0000042: 13                                         ; OPCODE_F32_CONST
0000043: 0000 0040                                  ; f32 literal
0000047: 18                                         ; OPCODE_CALL_IMPORT
0000048: 00                                         ; import index
0000049: 0b                                         ; OPCODE_DROP
000004a: 16                                         ; OPCODE_CALL_FUNCTION
000004b: 00                                         ; func index
000003e: 0d                                         ; FIXUP func body size
000003c: 0f                                         ; FIXUP section size
;; dump
0000000: 0061 736d 0c00 0000 0474 7970 650b 0240  
0000010: 0201 0301 0140 0001 0106 696d 706f 7274  
0000020: 0a01 0003 666f 6f03 6261 7208 6675 6e63  
0000030: 7469 6f6e 0201 0104 636f 6465 0f01 0d00  
0000040: 1001 1300 0000 4018 000b 1600            
;;; STDOUT ;;)
