;;; FLAGS: -dv

;; Make sure the function table entries skip over the imported functions.
(module
  (type $f_v (func (param f32)))

  ;; function 0
  (import $imported "foo" "bar" (result i32))

  ;; function 1
  (func $indirect (param f32)
    (nop))

  ;; function 2
  (func $caller
    (call_indirect $f_v (i32.const 0) (f32.const 1.0)))

  ;; should be function 1.
  (table $indirect))
(;; STDOUT ;;;
0000000: 0061 736d                                  ; WASM_BINARY_MAGIC
0000004: 0a00 0000                                  ; WASM_BINARY_VERSION
0000008: 01                                         ; WASM_BINARY_SECTION_SIGNATURES
0000009: 03                                         ; num signatures
; signature 0
000000a: 01                                         ; num params
000000b: 00                                         ; result_type
000000c: 03                                         ; param type
; signature 1
000000d: 00                                         ; num params
000000e: 01                                         ; result_type
; signature 2
000000f: 00                                         ; num params
0000010: 00                                         ; result_type
0000011: 08                                         ; WASM_BINARY_SECTION_IMPORTS
0000012: 01                                         ; num imports
; import header 0
0000013: 0100                                       ; import signature index
0000015: 0000 0000                                  ; import module name offset
0000019: 0000 0000                                  ; import function name offset
000001d: 02                                         ; WASM_BINARY_SECTION_FUNCTIONS
000001e: 02                                         ; num functions
; function 0
000001f: 00                                         ; func flags
0000020: 0000                                       ; func signature index
0000022: 0000                                       ; func body size
0000024: 00                                         ; local decl count
0000025: 00                                         ; OPCODE_NOP
0000022: 0200                                       ; FIXUP func body size
; function 1
0000026: 00                                         ; func flags
0000027: 0200                                       ; func signature index
0000029: 0000                                       ; func body size
000002b: 00                                         ; local decl count
000002c: 13                                         ; OPCODE_CALL_INDIRECT
000002d: 01                                         ; call arity
000002e: 00                                         ; signature index
000002f: 0a                                         ; OPCODE_I32_CONST
0000030: 00                                         ; i32 literal
0000031: 0d                                         ; OPCODE_F32_CONST
0000032: 0000 803f                                  ; f32 literal
0000029: 0b00                                       ; FIXUP func body size
0000036: 05                                         ; WASM_BINARY_SECTION_FUNCTION_TABLE
0000037: 01                                         ; num function table entries
0000038: 0000                                       ; function table entry
000003a: 06                                         ; WASM_BINARY_SECTION_END
; import 0
0000015: 3b00 0000                                  ; FIXUP import module name offset
000003b: 666f 6f                                    ; import module name
000003e: 00                                         ; \0
0000019: 3f00 0000                                  ; FIXUP import function name offset
000003f: 6261 72                                    ; import function name
0000042: 00                                         ; \0
;; dump
0000000: 0061 736d 0a00 0000 0103 0100 0300 0100  
0000010: 0008 0101 003b 0000 003f 0000 0002 0200  
0000020: 0000 0200 0000 0002 000b 0000 1301 000a  
0000030: 000d 0000 803f 0501 0000 0666 6f6f 0062  
0000040: 6172 00                                  
;;; STDOUT ;;)
