;;; FLAGS: -dv
(module
  (type $t (func (param i32)))
  (func $f (type $t)
    (call_indirect $t (i32.const 0) (i32.const 0)))
  (table $f))
(;; STDOUT ;;;
0000000: 0061 736d                                  ; WASM_BINARY_MAGIC
0000004: 0a00 0000                                  ; WASM_BINARY_VERSION
; section "signatures"
0000008: 00                                         ; section size (guess)
0000009: 0a                                         ; string length
000000a: 7369 676e 6174 7572 6573                   ; section id: "signatures"
0000014: 01                                         ; num signatures
; signature 0
0000015: 01                                         ; num params
0000016: 00                                         ; result_type
0000017: 01                                         ; param type
0000008: 0f                                         ; FIXUP section size
; section "function_signatures"
0000018: 00                                         ; section size (guess)
0000019: 13                                         ; string length
000001a: 6675 6e63 7469 6f6e 5f73 6967 6e61 7475  
000002a: 7265 73                                    ; section id: "function_signatures"
000002d: 01                                         ; num functions
000002e: 00                                         ; function 0 signature index
0000018: 16                                         ; FIXUP section size
; section "function_table"
000002f: 00                                         ; section size (guess)
0000030: 0e                                         ; string length
0000031: 6675 6e63 7469 6f6e 5f74 6162 6c65         ; section id: "function_table"
000003f: 01                                         ; num function table entries
0000040: 00                                         ; function table entry
000002f: 11                                         ; FIXUP section size
; section "function_bodies"
0000041: 00                                         ; section size (guess)
0000042: 0f                                         ; string length
0000043: 6675 6e63 7469 6f6e 5f62 6f64 6965 73      ; section id: "function_bodies"
0000052: 01                                         ; num functions
; function body 0
0000053: 00                                         ; func body size (guess)
0000054: 00                                         ; local decl count
0000055: 13                                         ; OPCODE_CALL_INDIRECT
0000056: 00                                         ; signature index
0000057: 0a                                         ; OPCODE_I32_CONST
0000058: 00                                         ; i32 literal
0000059: 0a                                         ; OPCODE_I32_CONST
000005a: 00                                         ; i32 literal
0000053: 07                                         ; FIXUP func body size
0000041: 19                                         ; FIXUP section size
; section "end"
000005b: 00                                         ; section size (guess)
000005c: 03                                         ; string length
000005d: 656e 64                                    ; section id: "end"
000005b: 04                                         ; FIXUP section size
;; dump
0000000: 0061 736d 0a00 0000 0f0a 7369 676e 6174  
0000010: 7572 6573 0101 0001 1613 6675 6e63 7469  
0000020: 6f6e 5f73 6967 6e61 7475 7265 7301 0011  
0000030: 0e66 756e 6374 696f 6e5f 7461 626c 6501  
0000040: 0019 0f66 756e 6374 696f 6e5f 626f 6469  
0000050: 6573 0107 0013 000a 000a 0004 0365 6e64  
;;; STDOUT ;;)
