;;; FLAGS: -dv
;; int->float reinterpret unsupported currently
(module
  (func
    (f32.reinterpret/i32 (i32.const 0))
    (i32.reinterpret/f32 (f32.const 0))
    (f64.reinterpret/i64 (i64.const 0))
    (i64.reinterpret/f64 (f64.const 0))))
(;; STDOUT ;;;
0000000: 0061 736d                                  ; WASM_BINARY_MAGIC
0000004: 0a00 0000                                  ; WASM_BINARY_VERSION
; section "signatures"
0000008: 00                                         ; section size (guess)
0000009: 0a                                         ; string length
000000a: 7369 676e 6174 7572 6573                   ; section id: "signatures"
0000014: 01                                         ; num signatures
; signature 0
0000015: 00                                         ; num params
0000016: 00                                         ; result_type
0000008: 0e                                         ; FIXUP section size
; section "function_signatures"
0000017: 00                                         ; section size (guess)
0000018: 13                                         ; string length
0000019: 6675 6e63 7469 6f6e 5f73 6967 6e61 7475  
0000029: 7265 73                                    ; section id: "function_signatures"
000002c: 01                                         ; num functions
000002d: 00                                         ; function 0 signature index
0000017: 16                                         ; FIXUP section size
; section "function_bodies"
000002e: 00                                         ; section size (guess)
000002f: 0f                                         ; string length
0000030: 6675 6e63 7469 6f6e 5f62 6f64 6965 73      ; section id: "function_bodies"
000003f: 01                                         ; num functions
; function body 0
0000040: 00                                         ; func body size (guess)
0000041: 00                                         ; local decl count
0000042: ad                                         ; OPCODE_F32_REINTERPRET_I32
0000043: 0a                                         ; OPCODE_I32_CONST
0000044: 00                                         ; i32 literal
0000045: b4                                         ; OPCODE_I32_REINTERPRET_F32
0000046: 0d                                         ; OPCODE_F32_CONST
0000047: 0000 0000                                  ; f32 literal
000004b: b3                                         ; OPCODE_F64_REINTERPRET_I64
000004c: 0b                                         ; OPCODE_I64_CONST
000004d: 00                                         ; i64 literal
000004e: b5                                         ; OPCODE_I64_REINTERPRET_F64
000004f: 0c                                         ; OPCODE_F64_CONST
0000050: 0000 0000 0000 0000                        ; f64 literal
0000040: 17                                         ; FIXUP func body size
000002e: 29                                         ; FIXUP section size
;; dump
0000000: 0061 736d 0a00 0000 0e0a 7369 676e 6174  
0000010: 7572 6573 0100 0016 1366 756e 6374 696f  
0000020: 6e5f 7369 676e 6174 7572 6573 0100 290f  
0000030: 6675 6e63 7469 6f6e 5f62 6f64 6965 7301  
0000040: 1700 ad0a 00b4 0d00 0000 00b3 0b00 b50c  
0000050: 0000 0000 0000 0000                      
;;; STDOUT ;;)
