;;; FLAGS: -dv
;; int->float reinterpret unsupported currently
(module
  (func
    (f32.reinterpret/i32 (i32.const 0))
    (i32.reinterpret/f32 (f32.const 0))
    (f64.reinterpret/i64 (i64.const 0))
    (i64.reinterpret/f64 (f64.const 0))))
(;; STDOUT ;;;
0000000: 01                                         ; WASM_SECTION_SIGNATURES
0000001: 01                                         ; num signatures
; signature 0
0000002: 00                                         ; num params
0000003: 00                                         ; result_type
0000004: 02                                         ; WASM_SECTION_FUNCTIONS
0000005: 01                                         ; num functions
; function 0
0000006: 00                                         ; func flags
0000007: 0000                                       ; func signature index
0000009: 0000                                       ; func body size
000000b: ad                                         ; OPCODE_F32_REINTERPRET_I32
000000c: 09                                         ; OPCODE_I8_CONST
000000d: 00                                         ; u8 literal
000000e: b4                                         ; OPCODE_I32_REINTERPRET_F32
000000f: 0d                                         ; OPCODE_F32_CONST
0000010: 0000 0000                                  ; f32 literal
0000014: b3                                         ; OPCODE_F64_REINTERPRET_I64
0000015: 0b                                         ; OPCODE_I64_CONST
0000016: 0000 0000 0000 0000                        ; u64 literal
000001e: b5                                         ; OPCODE_I64_REINTERPRET_F64
000001f: 0c                                         ; OPCODE_F64_CONST
0000020: 0000 0000 0000 0000                        ; f64 literal
0000009: 1d00                                       ; FIXUP func body size
0000028: 06                                         ; WASM_SECTION_END
;;; STDOUT ;;)
