# FLAGS: -dv
;; int->float reinterpret unsupported currently
(module
  (func
    (f32.reinterpret/i32 (i32.const 0))
;;    (i32.reinterpret/f32 (f32.const 0))
    (f64.reinterpret/i64 (i64.const 0))
;;    (i64.reinterpret/f64 (f64.const 0))
  ))
# STDOUT:
0000000: 14                                         ; mem size log 2
0000001: 01                                         ; export mem
0000002: 0000                                       ; num globals
0000004: 0100                                       ; num funcs
0000006: 0000                                       ; num data segments
0000008: 00                                         ; func num args
0000009: 00                                         ; func result type
000000a: 0000 0000                                  ; func name offset
000000e: 0000 0000                                  ; func code start offset
0000012: 0000 0000                                  ; func code end offset
0000016: 0000                                       ; num local i32
0000018: 0000                                       ; num local i64
000001a: 0000                                       ; num local f32
000001c: 0000                                       ; num local f64
000001e: 00                                         ; export func
000001f: 00                                         ; func external
000000e: 2000 0000                                  ; FIXUP func code start offset
0000020: ad                                         ; OPCODE_F32_REINTERPRET_I32
0000021: 11                                         ; OPCODE_I32_CONST
0000022: 0000 0000                                  ; u32 literal
0000026: b3                                         ; OPCODE_F64_REINTERPRET_I64
0000027: 12                                         ; OPCODE_I64_CONST
0000028: 0000 0000 0000 0000                        ; u64 literal
0000012: 3000 0000                                  ; FIXUP func code end offset
0000000: 1401 0000 0100 0000 0000 0000 0000 2000  .............. .
0000010: 0000 3000 0000 0000 0000 0000 0000 0000  ..0.............
0000020: ad11 0000 0000 b312 0000 0000 0000 0000  ................
