;;; TOOL: run-wasmdump
;;; FLAGS: -v
(module
  (func
    (drop (f32.reinterpret/i32 (i32.const 0)))
    (drop (i32.reinterpret/f32 (f32.const 0)))
    (drop (f64.reinterpret/i64 (i64.const 0)))
    (drop (i64.reinterpret/f64 (f64.const 0)))))
(;; STDOUT ;;;
0000000: 0061 736d                                 ; WASM_BINARY_MAGIC
0000004: 0c00 0000                                 ; WASM_BINARY_VERSION
; section "TYPE" (1)
0000008: 01                                        ; section code
0000009: 00                                        ; section size (guess)
000000a: 01                                        ; num types
; type 0
000000b: 40                                        ; function form
000000c: 00                                        ; num params
000000d: 00                                        ; num results
0000009: 04                                        ; FIXUP section size
; section "FUNCTION" (3)
000000e: 03                                        ; section code
000000f: 00                                        ; section size (guess)
0000010: 01                                        ; num functions
0000011: 00                                        ; function 0 signature index
000000f: 02                                        ; FIXUP section size
; section "CODE" (10)
0000012: 0a                                        ; section code
0000013: 00                                        ; section size (guess)
0000014: 01                                        ; num functions
; function body 0
0000015: 00                                        ; func body size (guess)
0000016: 00                                        ; local decl count
0000017: 10                                        ; i32.const
0000018: 00                                        ; i32 literal
0000019: ad                                        ; f32.reinterpret/i32
000001a: 0b                                        ; drop
000001b: 13                                        ; f32.const
000001c: 0000 0000                                 ; f32 literal
0000020: b4                                        ; i32.reinterpret/f32
0000021: 0b                                        ; drop
0000022: 11                                        ; i64.const
0000023: 00                                        ; i64 literal
0000024: b3                                        ; f64.reinterpret/i64
0000025: 0b                                        ; drop
0000026: 12                                        ; f64.const
0000027: 0000 0000 0000 0000                       ; f64 literal
000002f: b5                                        ; i64.reinterpret/f64
0000030: 0b                                        ; drop
0000031: 0f                                        ; end
0000015: 1c                                        ; FIXUP func body size
0000013: 1e                                        ; FIXUP section size
func 0
 000017: 10 00                      | i32.const 0
 000019: ad                         | f32.reinterpret/i32
 00001a: 0b                         | drop
 00001b: 13 00 00 00 00             | f32.const 0
 000020: b4                         | i32.reinterpret/f32
 000021: 0b                         | drop
 000022: 11 00                      | i64.const 0
 000024: b3                         | f64.reinterpret/i64
 000025: 0b                         | drop
 000026: 12 00 00 00 00 00 00 00 00 | f64.const 0
 00002f: b5                         | i64.reinterpret/f64
 000030: 0b                         | drop
;;; STDOUT ;;)
