;;; FLAGS: -dv
(module
  (func
    (i32.const 0)
    (i32.const -2147483648)
    (i32.const 4294967295)
    (i32.const -0x80000000)
    (i32.const 0xffffffff)

    (i64.const 0)
    (i64.const -9223372036854775808)
    (i64.const 18446744073709551615)
    (i64.const -0x8000000000000000)
    (i64.const 0xffffffffffffffff)

    (f32.const 0.0)
    (f32.const 1e23)
    (f32.const 1.234567e-5)
    (f32.const nan)
    (f32.const -nan)
    (f32.const +nan)
    (f32.const nan:0xabc)
    (f32.const -nan:0xabc)
    (f32.const +nan:0xabc)
    (f32.const infinity)
    (f32.const -infinity)
    (f32.const +infinity)
    (f32.const -0x1p-1)
    (f32.const 0x1.921fb6p+2)

    (f64.const 0.0)
    (f64.const -0.987654321)
    (f64.const 6.283185307179586)
    (f64.const nan)
    (f64.const -nan)
    (f64.const +nan)
    (f64.const nan:0xabc)
    (f64.const -nan:0xabc)
    (f64.const +nan:0xabc)
    (f64.const infinity)
    (f64.const -infinity)
    (f64.const +infinity)
    (f64.const -0x1p-1)
    (f64.const 0x1.921fb54442d18p+2)))
(;; STDOUT ;;;
0000000: 0061 736d                                  ; WASM_BINARY_MAGIC
0000004: 0a00 0000                                  ; WASM_BINARY_VERSION
0000008: 01                                         ; WASM_BINARY_SECTION_SIGNATURES
0000009: 01                                         ; num signatures
; signature 0
000000a: 00                                         ; num params
000000b: 00                                         ; result_type
000000c: 02                                         ; WASM_BINARY_SECTION_FUNCTIONS
000000d: 01                                         ; num functions
; function 0
000000e: 00                                         ; func flags
000000f: 0000                                       ; func signature index
0000011: 0000                                       ; func body size
0000013: 00                                         ; local decl count
0000014: 0a                                         ; OPCODE_I32_CONST
0000015: 00                                         ; i32 literal
0000016: 0a                                         ; OPCODE_I32_CONST
0000017: 8080 8080 78                               ; i32 literal
000001c: 0a                                         ; OPCODE_I32_CONST
000001d: 7f                                         ; i32 literal
000001e: 0a                                         ; OPCODE_I32_CONST
000001f: 8080 8080 78                               ; i32 literal
0000024: 0a                                         ; OPCODE_I32_CONST
0000025: 7f                                         ; i32 literal
0000026: 0b                                         ; OPCODE_I64_CONST
0000027: 00                                         ; i64 literal
0000028: 0b                                         ; OPCODE_I64_CONST
0000029: 8080 8080 8080 8080 807f                   ; i64 literal
0000033: 0b                                         ; OPCODE_I64_CONST
0000034: 7f                                         ; i64 literal
0000035: 0b                                         ; OPCODE_I64_CONST
0000036: 8080 8080 8080 8080 807f                   ; i64 literal
0000040: 0b                                         ; OPCODE_I64_CONST
0000041: 7f                                         ; i64 literal
0000042: 0d                                         ; OPCODE_F32_CONST
0000043: 0000 0000                                  ; f32 literal
0000047: 0d                                         ; OPCODE_F32_CONST
0000048: 1668 a965                                  ; f32 literal
000004c: 0d                                         ; OPCODE_F32_CONST
000004d: 4020 4f37                                  ; f32 literal
0000051: 0d                                         ; OPCODE_F32_CONST
0000052: 0000 c07f                                  ; f32 literal
0000056: 0d                                         ; OPCODE_F32_CONST
0000057: 0000 c0ff                                  ; f32 literal
000005b: 0d                                         ; OPCODE_F32_CONST
000005c: 0000 c07f                                  ; f32 literal
0000060: 0d                                         ; OPCODE_F32_CONST
0000061: bc0a 807f                                  ; f32 literal
0000065: 0d                                         ; OPCODE_F32_CONST
0000066: bc0a 80ff                                  ; f32 literal
000006a: 0d                                         ; OPCODE_F32_CONST
000006b: bc0a 807f                                  ; f32 literal
000006f: 0d                                         ; OPCODE_F32_CONST
0000070: 0000 807f                                  ; f32 literal
0000074: 0d                                         ; OPCODE_F32_CONST
0000075: 0000 80ff                                  ; f32 literal
0000079: 0d                                         ; OPCODE_F32_CONST
000007a: 0000 807f                                  ; f32 literal
000007e: 0d                                         ; OPCODE_F32_CONST
000007f: 0000 00bf                                  ; f32 literal
0000083: 0d                                         ; OPCODE_F32_CONST
0000084: db0f c940                                  ; f32 literal
0000088: 0c                                         ; OPCODE_F64_CONST
0000089: 0000 0000 0000 0000                        ; f64 literal
0000091: 0c                                         ; OPCODE_F64_CONST
0000092: b856 0e3c dd9a efbf                        ; f64 literal
000009a: 0c                                         ; OPCODE_F64_CONST
000009b: 182d 4454 fb21 1940                        ; f64 literal
00000a3: 0c                                         ; OPCODE_F64_CONST
00000a4: 0000 0000 0000 f87f                        ; f64 literal
00000ac: 0c                                         ; OPCODE_F64_CONST
00000ad: 0000 0000 0000 f8ff                        ; f64 literal
00000b5: 0c                                         ; OPCODE_F64_CONST
00000b6: 0000 0000 0000 f87f                        ; f64 literal
00000be: 0c                                         ; OPCODE_F64_CONST
00000bf: bc0a 0000 0000 f07f                        ; f64 literal
00000c7: 0c                                         ; OPCODE_F64_CONST
00000c8: bc0a 0000 0000 f0ff                        ; f64 literal
00000d0: 0c                                         ; OPCODE_F64_CONST
00000d1: bc0a 0000 0000 f07f                        ; f64 literal
00000d9: 0c                                         ; OPCODE_F64_CONST
00000da: 0000 0000 0000 f07f                        ; f64 literal
00000e2: 0c                                         ; OPCODE_F64_CONST
00000e3: 0000 0000 0000 f0ff                        ; f64 literal
00000eb: 0c                                         ; OPCODE_F64_CONST
00000ec: 0000 0000 0000 f07f                        ; f64 literal
00000f4: 0c                                         ; OPCODE_F64_CONST
00000f5: 0000 0000 0000 e0bf                        ; f64 literal
00000fd: 0c                                         ; OPCODE_F64_CONST
00000fe: 182d 4454 fb21 1940                        ; f64 literal
0000011: f300                                       ; FIXUP func body size
0000106: 06                                         ; WASM_BINARY_SECTION_END
;; dump
0000000: 0061 736d 0a00 0000 0101 0000 0201 0000  
0000010: 00f3 0000 0a00 0a80 8080 8078 0a7f 0a80  
0000020: 8080 8078 0a7f 0b00 0b80 8080 8080 8080  
0000030: 8080 7f0b 7f0b 8080 8080 8080 8080 807f  
0000040: 0b7f 0d00 0000 000d 1668 a965 0d40 204f  
0000050: 370d 0000 c07f 0d00 00c0 ff0d 0000 c07f  
0000060: 0dbc 0a80 7f0d bc0a 80ff 0dbc 0a80 7f0d  
0000070: 0000 807f 0d00 0080 ff0d 0000 807f 0d00  
0000080: 0000 bf0d db0f c940 0c00 0000 0000 0000  
0000090: 000c b856 0e3c dd9a efbf 0c18 2d44 54fb  
00000a0: 2119 400c 0000 0000 0000 f87f 0c00 0000  
00000b0: 0000 00f8 ff0c 0000 0000 0000 f87f 0cbc  
00000c0: 0a00 0000 00f0 7f0c bc0a 0000 0000 f0ff  
00000d0: 0cbc 0a00 0000 00f0 7f0c 0000 0000 0000  
00000e0: f07f 0c00 0000 0000 00f0 ff0c 0000 0000  
00000f0: 0000 f07f 0c00 0000 0000 00e0 bf0c 182d  
0000100: 4454 fb21 1940 06                        
;;; STDOUT ;;)
