;;; FLAGS: -dv
(module
  (func
    (i32.const 0)
    (i32.const -2147483648)
    (i32.const 4294967295)
    (i32.const -0x80000000)
    (i32.const 0xffffffff)

    (i64.const 0)
    (i64.const -9223372036854775808)
    (i64.const 18446744073709551615)
    (i64.const -0x8000000000000000)
    (i64.const 0xffffffffffffffff)

    (f32.const 0.0)
    (f32.const 1e23)
    (f32.const 1.234567e-5)
    (f32.const nan)
    (f32.const -nan)
    (f32.const +nan)
    (f32.const nan:0xabc)
    (f32.const -nan:0xabc)
    (f32.const +nan:0xabc)
    (f32.const infinity)
    (f32.const -infinity)
    (f32.const +infinity)
    (f32.const -0x1p-1)
    (f32.const 0x1.921fb6p+2)

    (f64.const 0.0)
    (f64.const -0.987654321)
    (f64.const 6.283185307179586)
    (f64.const nan)
    (f64.const -nan)
    (f64.const +nan)
    (f64.const nan:0xabc)
    (f64.const -nan:0xabc)
    (f64.const +nan:0xabc)
    (f64.const infinity)
    (f64.const -infinity)
    (f64.const +infinity)
    (f64.const -0x1p-1)
    (f64.const 0x1.921fb54442d18p+2)))
(;; STDOUT ;;;
0000000: 01                                         ; WASM_SECTION_SIGNATURES
0000001: 01                                         ; num signatures
; signature 0
0000002: 00                                         ; num params
0000003: 00                                         ; result_type
0000004: 02                                         ; WASM_SECTION_FUNCTIONS
0000005: 01                                         ; num functions
; function 0
0000006: 00                                         ; func flags
0000007: 0000                                       ; func signature index
0000009: 0000                                       ; func body size
000000b: 09                                         ; OPCODE_I8_CONST
000000c: 00                                         ; u8 literal
000000d: 0a                                         ; OPCODE_I32_CONST
000000e: 0000 0080                                  ; u32 literal
0000012: 09                                         ; OPCODE_I8_CONST
0000013: ff                                         ; u8 literal
0000014: 0a                                         ; OPCODE_I32_CONST
0000015: 0000 0080                                  ; u32 literal
0000019: 09                                         ; OPCODE_I8_CONST
000001a: ff                                         ; u8 literal
000001b: 0b                                         ; OPCODE_I64_CONST
000001c: 0000 0000 0000 0000                        ; u64 literal
0000024: 0b                                         ; OPCODE_I64_CONST
0000025: 0000 0000 0000 0080                        ; u64 literal
000002d: 0b                                         ; OPCODE_I64_CONST
000002e: ffff ffff ffff ffff                        ; u64 literal
0000036: 0b                                         ; OPCODE_I64_CONST
0000037: 0000 0000 0000 0080                        ; u64 literal
000003f: 0b                                         ; OPCODE_I64_CONST
0000040: ffff ffff ffff ffff                        ; u64 literal
0000048: 0d                                         ; OPCODE_F32_CONST
0000049: 0000 0000                                  ; f32 literal
000004d: 0d                                         ; OPCODE_F32_CONST
000004e: 1668 a965                                  ; f32 literal
0000052: 0d                                         ; OPCODE_F32_CONST
0000053: 4020 4f37                                  ; f32 literal
0000057: 0d                                         ; OPCODE_F32_CONST
0000058: 0000 c07f                                  ; f32 literal
000005c: 0d                                         ; OPCODE_F32_CONST
000005d: 0000 c0ff                                  ; f32 literal
0000061: 0d                                         ; OPCODE_F32_CONST
0000062: 0000 c07f                                  ; f32 literal
0000066: 0d                                         ; OPCODE_F32_CONST
0000067: bc0a 807f                                  ; f32 literal
000006b: 0d                                         ; OPCODE_F32_CONST
000006c: bc0a 80ff                                  ; f32 literal
0000070: 0d                                         ; OPCODE_F32_CONST
0000071: bc0a 807f                                  ; f32 literal
0000075: 0d                                         ; OPCODE_F32_CONST
0000076: 0000 807f                                  ; f32 literal
000007a: 0d                                         ; OPCODE_F32_CONST
000007b: 0000 80ff                                  ; f32 literal
000007f: 0d                                         ; OPCODE_F32_CONST
0000080: 0000 807f                                  ; f32 literal
0000084: 0d                                         ; OPCODE_F32_CONST
0000085: 0000 00bf                                  ; f32 literal
0000089: 0d                                         ; OPCODE_F32_CONST
000008a: db0f c940                                  ; f32 literal
000008e: 0c                                         ; OPCODE_F64_CONST
000008f: 0000 0000 0000 0000                        ; f64 literal
0000097: 0c                                         ; OPCODE_F64_CONST
0000098: b856 0e3c dd9a efbf                        ; f64 literal
00000a0: 0c                                         ; OPCODE_F64_CONST
00000a1: 182d 4454 fb21 1940                        ; f64 literal
00000a9: 0c                                         ; OPCODE_F64_CONST
00000aa: 0000 0000 0000 f87f                        ; f64 literal
00000b2: 0c                                         ; OPCODE_F64_CONST
00000b3: 0000 0000 0000 f8ff                        ; f64 literal
00000bb: 0c                                         ; OPCODE_F64_CONST
00000bc: 0000 0000 0000 f87f                        ; f64 literal
00000c4: 0c                                         ; OPCODE_F64_CONST
00000c5: bc0a 0000 0000 f07f                        ; f64 literal
00000cd: 0c                                         ; OPCODE_F64_CONST
00000ce: bc0a 0000 0000 f0ff                        ; f64 literal
00000d6: 0c                                         ; OPCODE_F64_CONST
00000d7: bc0a 0000 0000 f07f                        ; f64 literal
00000df: 0c                                         ; OPCODE_F64_CONST
00000e0: 0000 0000 0000 f07f                        ; f64 literal
00000e8: 0c                                         ; OPCODE_F64_CONST
00000e9: 0000 0000 0000 f0ff                        ; f64 literal
00000f1: 0c                                         ; OPCODE_F64_CONST
00000f2: 0000 0000 0000 f07f                        ; f64 literal
00000fa: 0c                                         ; OPCODE_F64_CONST
00000fb: 0000 0000 0000 e0bf                        ; f64 literal
0000103: 0c                                         ; OPCODE_F64_CONST
0000104: 182d 4454 fb21 1940                        ; f64 literal
0000009: 0101                                       ; FIXUP func body size
000010c: 06                                         ; WASM_SECTION_END
;; dump
0000000: 0101 0000 0201 0000 0001 0109 000a 0000  
0000010: 0080 09ff 0a00 0000 8009 ff0b 0000 0000  
0000020: 0000 0000 0b00 0000 0000 0000 800b ffff  
0000030: ffff ffff ffff 0b00 0000 0000 0000 800b  
0000040: ffff ffff ffff ffff 0d00 0000 000d 1668  
0000050: a965 0d40 204f 370d 0000 c07f 0d00 00c0  
0000060: ff0d 0000 c07f 0dbc 0a80 7f0d bc0a 80ff  
0000070: 0dbc 0a80 7f0d 0000 807f 0d00 0080 ff0d  
0000080: 0000 807f 0d00 0000 bf0d db0f c940 0c00  
0000090: 0000 0000 0000 000c b856 0e3c dd9a efbf  
00000a0: 0c18 2d44 54fb 2119 400c 0000 0000 0000  
00000b0: f87f 0c00 0000 0000 00f8 ff0c 0000 0000  
00000c0: 0000 f87f 0cbc 0a00 0000 00f0 7f0c bc0a  
00000d0: 0000 0000 f0ff 0cbc 0a00 0000 00f0 7f0c  
00000e0: 0000 0000 0000 f07f 0c00 0000 0000 00f0  
00000f0: ff0c 0000 0000 0000 f07f 0c00 0000 0000  
0000100: 00e0 bf0c 182d 4454 fb21 1940 06         
;;; STDOUT ;;)
