# FLAGS: -dv
(module
  (func
    (i32.const -2147483648)
    (i32.const -1)
    (i32.const 0)
    (i32.const 4294967295)
    (i64.const -9223372036854775808)
    (i64.const -1)
    (i64.const 0)
    (i64.const 18446744073709551615)
    (f32.const 0.0)
    (f32.const 1e23)
    (f32.const 1.234567e-5)
    (f64.const 0.0)
    (f64.const -0.987654321)
    (f64.const 6.283185307179586)))
# STDOUT:
0000000: 00                                         ; mem size log 2
0000001: 01                                         ; export mem
0000002: 0000                                       ; num globals
0000004: 0100                                       ; num funcs
0000006: 0000                                       ; num data segments
; function header 0
0000008: 00                                         ; func num args
0000009: 00                                         ; func result type
000000a: 0000 0000                                  ; func name offset
000000e: 0000 0000                                  ; func code start offset
0000012: 0000 0000                                  ; func code end offset
0000016: 0000                                       ; num local i32
0000018: 0000                                       ; num local i64
000001a: 0000                                       ; num local f32
000001c: 0000                                       ; num local f64
000001e: 00                                         ; export func
000001f: 00                                         ; func external
; function data 0
000000e: 2000 0000                                  ; FIXUP func code start offset
0000020: 11                                         ; OPCODE_I32_CONST
0000021: 0000 0080                                  ; u32 literal
0000025: 10                                         ; OPCODE_I8_CONST
0000026: ff                                         ; u8 literal
0000027: 10                                         ; OPCODE_I8_CONST
0000028: 00                                         ; u8 literal
0000029: 10                                         ; OPCODE_I8_CONST
000002a: ff                                         ; u8 literal
000002b: 12                                         ; OPCODE_I64_CONST
000002c: 0000 0000 0000 0080                        ; u64 literal
0000034: 12                                         ; OPCODE_I64_CONST
0000035: ffff ffff ffff ffff                        ; u64 literal
000003d: 12                                         ; OPCODE_I64_CONST
000003e: 0000 0000 0000 0000                        ; u64 literal
0000046: 12                                         ; OPCODE_I64_CONST
0000047: ffff ffff ffff ffff                        ; u64 literal
000004f: 14                                         ; OPCODE_F32_CONST
0000050: 0000 0000                                  ; f32 literal
0000054: 14                                         ; OPCODE_F32_CONST
0000055: 1668 a965                                  ; f32 literal
0000059: 14                                         ; OPCODE_F32_CONST
000005a: 4020 4f37                                  ; f32 literal
000005e: 13                                         ; OPCODE_F64_CONST
000005f: 0000 0000 0000 0000                        ; f64 literal
0000067: 13                                         ; OPCODE_F64_CONST
0000068: b856 0e3c dd9a efbf                        ; f64 literal
0000070: 13                                         ; OPCODE_F64_CONST
0000071: 182d 4454 fb21 1940                        ; f64 literal
0000012: 7900 0000                                  ; FIXUP func code end offset
; names
0000000: 0001 0000 0100 0000 0000 0000 0000 2000  .............. .
0000010: 0000 7900 0000 0000 0000 0000 0000 0000  ..y.............
0000020: 1100 0000 8010 ff10 0010 ff12 0000 0000  ................
0000030: 0000 0080 12ff ffff ffff ffff ff12 0000  ................
0000040: 0000 0000 0000 12ff ffff ffff ffff ff14  ................
0000050: 0000 0000 1416 68a9 6514 4020 4f37 1300  ......h.e.@ O7..
0000060: 0000 0000 0000 0013 b856 0e3c dd9a efbf  .........V.<....
0000070: 1318 2d44 54fb 2119 40                   ..-DT.!.@
