;;; FLAGS: -dv
(module
  (func
    (i32.const 0)
    (i32.const -2147483648)
    (i32.const 4294967295)
    (i32.const -0x80000000)
    (i32.const 0xffffffff)

    (i64.const 0)
    (i64.const -9223372036854775808)
    (i64.const 18446744073709551615)
    (i64.const -0x8000000000000000)
    (i64.const 0xffffffffffffffff)

    (f32.const 0.0)
    (f32.const 1e23)
    (f32.const 1.234567e-5)
    (f32.const nan)
    (f32.const -nan)
    (f32.const +nan)
    (f32.const nan:0xabc)
    (f32.const -nan:0xabc)
    (f32.const +nan:0xabc)
    (f32.const infinity)
    (f32.const -infinity)
    (f32.const +infinity)
    (f32.const -0x1p-1)
    (f32.const 0x1.921fb6p+2)

    (f64.const 0.0)
    (f64.const -0.987654321)
    (f64.const 6.283185307179586)
    (f64.const nan)
    (f64.const -nan)
    (f64.const +nan)
    (f64.const nan:0xabc)
    (f64.const -nan:0xabc)
    (f64.const +nan:0xabc)
    (f64.const infinity)
    (f64.const -infinity)
    (f64.const +infinity)
    (f64.const -0x1p-1)
    (f64.const 0x1.921fb54442d18p+2)))
(;; STDOUT ;;;
0000000: 00                                         ; WASM_SECTION_MEMORY
0000001: 00                                         ; min mem size log 2
0000002: 00                                         ; max mem size log 2
0000003: 01                                         ; export mem
0000004: 01                                         ; WASM_SECTION_SIGNATURES
0000005: 01                                         ; num signatures
; signature 0
0000006: 00                                         ; num args
0000007: 00                                         ; result_type
0000008: 02                                         ; WASM_SECTION_FUNCTIONS
0000009: 01                                         ; num functions
; function 0
000000a: 01                                         ; func flags
000000b: 0000                                       ; func signature index
000000d: 0000 0000                                  ; func name offset
0000011: 0000                                       ; func body size
0000013: 09                                         ; OPCODE_I8_CONST
0000014: 00                                         ; u8 literal
0000015: 0a                                         ; OPCODE_I32_CONST
0000016: 0000 0080                                  ; u32 literal
000001a: 09                                         ; OPCODE_I8_CONST
000001b: ff                                         ; u8 literal
000001c: 0a                                         ; OPCODE_I32_CONST
000001d: 0000 0080                                  ; u32 literal
0000021: 09                                         ; OPCODE_I8_CONST
0000022: ff                                         ; u8 literal
0000023: 0b                                         ; OPCODE_I64_CONST
0000024: 0000 0000 0000 0000                        ; u64 literal
000002c: 0b                                         ; OPCODE_I64_CONST
000002d: 0000 0000 0000 0080                        ; u64 literal
0000035: 0b                                         ; OPCODE_I64_CONST
0000036: ffff ffff ffff ffff                        ; u64 literal
000003e: 0b                                         ; OPCODE_I64_CONST
000003f: 0000 0000 0000 0080                        ; u64 literal
0000047: 0b                                         ; OPCODE_I64_CONST
0000048: ffff ffff ffff ffff                        ; u64 literal
0000050: 0d                                         ; OPCODE_F32_CONST
0000051: 0000 0000                                  ; f32 literal
0000055: 0d                                         ; OPCODE_F32_CONST
0000056: 1668 a965                                  ; f32 literal
000005a: 0d                                         ; OPCODE_F32_CONST
000005b: 4020 4f37                                  ; f32 literal
000005f: 0d                                         ; OPCODE_F32_CONST
0000060: 0000 c07f                                  ; f32 literal
0000064: 0d                                         ; OPCODE_F32_CONST
0000065: 0000 c0ff                                  ; f32 literal
0000069: 0d                                         ; OPCODE_F32_CONST
000006a: 0000 c07f                                  ; f32 literal
000006e: 0d                                         ; OPCODE_F32_CONST
000006f: bc0a 807f                                  ; f32 literal
0000073: 0d                                         ; OPCODE_F32_CONST
0000074: bc0a 80ff                                  ; f32 literal
0000078: 0d                                         ; OPCODE_F32_CONST
0000079: bc0a 807f                                  ; f32 literal
000007d: 0d                                         ; OPCODE_F32_CONST
000007e: 0000 807f                                  ; f32 literal
0000082: 0d                                         ; OPCODE_F32_CONST
0000083: 0000 80ff                                  ; f32 literal
0000087: 0d                                         ; OPCODE_F32_CONST
0000088: 0000 807f                                  ; f32 literal
000008c: 0d                                         ; OPCODE_F32_CONST
000008d: 0000 00bf                                  ; f32 literal
0000091: 0d                                         ; OPCODE_F32_CONST
0000092: db0f c940                                  ; f32 literal
0000096: 0c                                         ; OPCODE_F64_CONST
0000097: 0000 0000 0000 0000                        ; f64 literal
000009f: 0c                                         ; OPCODE_F64_CONST
00000a0: b856 0e3c dd9a efbf                        ; f64 literal
00000a8: 0c                                         ; OPCODE_F64_CONST
00000a9: 182d 4454 fb21 1940                        ; f64 literal
00000b1: 0c                                         ; OPCODE_F64_CONST
00000b2: 0000 0000 0000 f87f                        ; f64 literal
00000ba: 0c                                         ; OPCODE_F64_CONST
00000bb: 0000 0000 0000 f8ff                        ; f64 literal
00000c3: 0c                                         ; OPCODE_F64_CONST
00000c4: 0000 0000 0000 f87f                        ; f64 literal
00000cc: 0c                                         ; OPCODE_F64_CONST
00000cd: bc0a 0000 0000 f07f                        ; f64 literal
00000d5: 0c                                         ; OPCODE_F64_CONST
00000d6: bc0a 0000 0000 f0ff                        ; f64 literal
00000de: 0c                                         ; OPCODE_F64_CONST
00000df: bc0a 0000 0000 f07f                        ; f64 literal
00000e7: 0c                                         ; OPCODE_F64_CONST
00000e8: 0000 0000 0000 f07f                        ; f64 literal
00000f0: 0c                                         ; OPCODE_F64_CONST
00000f1: 0000 0000 0000 f0ff                        ; f64 literal
00000f9: 0c                                         ; OPCODE_F64_CONST
00000fa: 0000 0000 0000 f07f                        ; f64 literal
0000102: 0c                                         ; OPCODE_F64_CONST
0000103: 0000 0000 0000 e0bf                        ; f64 literal
000010b: 0c                                         ; OPCODE_F64_CONST
000010c: 182d 4454 fb21 1940                        ; f64 literal
0000011: 0101                                       ; FIXUP func body size
0000114: 06                                         ; WASM_SECTION_END
; names
0000000: 0000 0001 0101 0000 0201 0100 0000 0000  ................
0000010: 0001 0109 000a 0000 0080 09ff 0a00 0000  ................
0000020: 8009 ff0b 0000 0000 0000 0000 0b00 0000  ................
0000030: 0000 0000 800b ffff ffff ffff ffff 0b00  ................
0000040: 0000 0000 0000 800b ffff ffff ffff ffff  ................
0000050: 0d00 0000 000d 1668 a965 0d40 204f 370d  .......h.e.@ O7.
0000060: 0000 c07f 0d00 00c0 ff0d 0000 c07f 0dbc  ................
0000070: 0a80 7f0d bc0a 80ff 0dbc 0a80 7f0d 0000  ................
0000080: 807f 0d00 0080 ff0d 0000 807f 0d00 0000  ................
0000090: bf0d db0f c940 0c00 0000 0000 0000 000c  .....@..........
00000a0: b856 0e3c dd9a efbf 0c18 2d44 54fb 2119  .V.<......-DT.!.
00000b0: 400c 0000 0000 0000 f87f 0c00 0000 0000  @...............
00000c0: 00f8 ff0c 0000 0000 0000 f87f 0cbc 0a00  ................
00000d0: 0000 00f0 7f0c bc0a 0000 0000 f0ff 0cbc  ................
00000e0: 0a00 0000 00f0 7f0c 0000 0000 0000 f07f  ................
00000f0: 0c00 0000 0000 00f0 ff0c 0000 0000 0000  ................
0000100: f07f 0c00 0000 0000 00e0 bf0c 182d 4454  .............-DT
0000110: fb21 1940 06                             .!.@.
;;; STDOUT ;;)
