# FLAGS: -dv
(module
  (func
    (i32.const -2147483648)
    (i32.const -1)
    (i32.const 0)
    (i32.const 4294967295)
    (i64.const -9223372036854775808)
    (i64.const -1)
    (i64.const 0)
    (i64.const 18446744073709551615)
    (f32.const 0.0)
    (f32.const 1e23)
    (f32.const 1.234567e-5)
    (f64.const 0.0)
    (f64.const -0.987654321)
    (f64.const 6.283185307179586)))
# STDOUT:
0000000: 00                                         ; mem size log 2
0000001: 01                                         ; export mem
0000002: 0000                                       ; num globals
0000004: 0100                                       ; num funcs
0000006: 0000                                       ; num data segments
; function header 0
0000008: 00                                         ; func num args
0000009: 00                                         ; func result type
000000a: 0000 0000                                  ; func name offset
000000e: 0000 0000                                  ; func code start offset
0000012: 0000 0000                                  ; func code end offset
0000016: 0000                                       ; num local i32
0000018: 0000                                       ; num local i64
000001a: 0000                                       ; num local f32
000001c: 0000                                       ; num local f64
000001e: 00                                         ; export func
000001f: 00                                         ; func external
; function data 0
000000e: 2000 0000                                  ; FIXUP func code start offset
0000020: 03                                         ; OPCODE_BLOCK
0000021: 00                                         ; toplevel block num expressions
0000022: 11                                         ; OPCODE_I32_CONST
0000023: 0000 0080                                  ; u32 literal
0000027: 11                                         ; OPCODE_I32_CONST
0000028: ffff ffff                                  ; u32 literal
000002c: 11                                         ; OPCODE_I32_CONST
000002d: 0000 0000                                  ; u32 literal
0000031: 11                                         ; OPCODE_I32_CONST
0000032: ffff ffff                                  ; u32 literal
0000036: 12                                         ; OPCODE_I64_CONST
0000037: 0000 0000 0000 0080                        ; u64 literal
000003f: 12                                         ; OPCODE_I64_CONST
0000040: ffff ffff ffff ffff                        ; u64 literal
0000048: 12                                         ; OPCODE_I64_CONST
0000049: 0000 0000 0000 0000                        ; u64 literal
0000051: 12                                         ; OPCODE_I64_CONST
0000052: ffff ffff ffff ffff                        ; u64 literal
000005a: 14                                         ; OPCODE_F32_CONST
000005b: 0000 0000                                  ; f32 literal
000005f: 14                                         ; OPCODE_F32_CONST
0000060: 1668 a965                                  ; f32 literal
0000064: 14                                         ; OPCODE_F32_CONST
0000065: 4020 4f37                                  ; f32 literal
0000069: 13                                         ; OPCODE_F64_CONST
000006a: 0000 0000 0000 0000                        ; f64 literal
0000072: 13                                         ; OPCODE_F64_CONST
0000073: b856 0e3c dd9a efbf                        ; f64 literal
000007b: 13                                         ; OPCODE_F64_CONST
000007c: 182d 4454 fb21 1940                        ; f64 literal
0000021: 0e                                         ; FIXUP toplevel block num expressions
0000012: 8400 0000                                  ; FIXUP func code end offset
; names
0000000: 0001 0000 0100 0000 0000 0000 0000 2000  .............. .
0000010: 0000 8400 0000 0000 0000 0000 0000 0000  ................
0000020: 030e 1100 0000 8011 ffff ffff 1100 0000  ................
0000030: 0011 ffff ffff 1200 0000 0000 0000 8012  ................
0000040: ffff ffff ffff ffff 1200 0000 0000 0000  ................
0000050: 0012 ffff ffff ffff ffff 1400 0000 0014  ................
0000060: 1668 a965 1440 204f 3713 0000 0000 0000  .h.e.@ O7.......
0000070: 0000 13b8 560e 3cdd 9aef bf13 182d 4454  ....V.<......-DT
0000080: fb21 1940                                .!.@
