;;; FLAGS: -dv
(module
  (func
    (i32.wrap/i64
      (i64.extend_u/i32
        (i32.trunc_s/f32
          (f32.convert_s/i32
            (i32.trunc_u/f32
              (f32.convert_u/i32
                (i32.trunc_s/f64
                  (f64.convert_s/i32
                    (i32.trunc_u/f64
                      (f64.convert_u/i32 (i32.const 0)))))))))))

    (i64.trunc_s/f32
      (f32.convert_s/i64
        (i64.trunc_u/f32
          (f32.convert_u/i64
            (i64.trunc_s/f64
              (f64.convert_s/i64
                (i64.trunc_u/f64
                  (f64.convert_u/i64
                    (i64.extend_s/i32 (i32.const 0))))))))))

    (f32.demote/f64
      (f64.promote/f32 (f32.const 0)))))
(;; STDOUT ;;;
0000000: 00                                         ; WASM_SECTION_MEMORY
0000001: 00                                         ; min mem size log 2
0000002: 00                                         ; max mem size log 2
0000003: 01                                         ; export mem
0000004: 01                                         ; WASM_SECTION_SIGNATURES
0000005: 01                                         ; num signatures
; signature 0
0000006: 00                                         ; num args
0000007: 00                                         ; result_type
0000008: 02                                         ; WASM_SECTION_FUNCTIONS
0000009: 01                                         ; num functions
; function 0
000000a: 01                                         ; func flags
000000b: 0000                                       ; func signature index
000000d: 0000 0000                                  ; func name offset
0000011: 0000                                       ; func body size
0000013: a1                                         ; OPCODE_I32_CONVERT_I64
0000014: a7                                         ; OPCODE_I64_UCONVERT_I32
0000015: 9d                                         ; OPCODE_I32_SCONVERT_F32
0000016: a8                                         ; OPCODE_F32_SCONVERT_I32
0000017: 9f                                         ; OPCODE_I32_UCONVERT_F32
0000018: a9                                         ; OPCODE_F32_UCONVERT_I32
0000019: 9e                                         ; OPCODE_I32_SCONVERT_F64
000001a: ae                                         ; OPCODE_F64_SCONVERT_I32
000001b: a0                                         ; OPCODE_I32_UCONVERT_F64
000001c: af                                         ; OPCODE_F64_UCONVERT_I32
000001d: 09                                         ; OPCODE_I8_CONST
000001e: 00                                         ; u8 literal
000001f: a2                                         ; OPCODE_I64_SCONVERT_F32
0000020: aa                                         ; OPCODE_F32_SCONVERT_I64
0000021: a4                                         ; OPCODE_I64_UCONVERT_F32
0000022: ab                                         ; OPCODE_F32_UCONVERT_I64
0000023: a3                                         ; OPCODE_I64_SCONVERT_F64
0000024: b0                                         ; OPCODE_F64_SCONVERT_I64
0000025: a5                                         ; OPCODE_I64_UCONVERT_F64
0000026: b1                                         ; OPCODE_F64_UCONVERT_I64
0000027: a6                                         ; OPCODE_I64_SCONVERT_I32
0000028: 09                                         ; OPCODE_I8_CONST
0000029: 00                                         ; u8 literal
000002a: ac                                         ; OPCODE_F32_CONVERT_F64
000002b: b2                                         ; OPCODE_F64_CONVERT_F32
000002c: 0d                                         ; OPCODE_F32_CONST
000002d: 0000 0000                                  ; f32 literal
0000011: 1e00                                       ; FIXUP func body size
0000031: 06                                         ; WASM_SECTION_END
; names
0000000: 0000 0001 0101 0000 0201 0100 0000 0000  ................
0000010: 001e 00a1 a79d a89f a99e aea0 af09 00a2  ................
0000020: aaa4 aba3 b0a5 b1a6 0900 acb2 0d00 0000  ................
0000030: 0006                                     ..
;;; STDOUT ;;)
