;;; FLAGS: -dv
(module
  (func
    (i32.wrap/i64
      (i64.extend_u/i32
        (i32.trunc_s/f32
          (f32.convert_s/i32
            (i32.trunc_u/f32
              (f32.convert_u/i32
                (i32.trunc_s/f64
                  (f64.convert_s/i32
                    (i32.trunc_u/f64
                      (f64.convert_u/i32 (i32.const 0)))))))))))

    (i64.trunc_s/f32
      (f32.convert_s/i64
        (i64.trunc_u/f32
          (f32.convert_u/i64
            (i64.trunc_s/f64
              (f64.convert_s/i64
                (i64.trunc_u/f64
                  (f64.convert_u/i64
                    (i64.extend_s/i32 (i32.const 0))))))))))

    (f32.demote/f64
      (f64.promote/f32 (f32.const 0)))))
(;; STDOUT ;;;
0000000: 0061 736d                                  ; WASM_BINARY_MAGIC
0000004: 0b00 0000                                  ; WASM_BINARY_VERSION
; section "type"
0000008: 04                                         ; string length
0000009: 7479 7065                                  ; section id: "type"
000000d: 00                                         ; section size (guess)
000000e: 01                                         ; num types
; type 0
000000f: 40                                         ; function form
0000010: 00                                         ; num params
0000011: 00                                         ; num results
000000d: 04                                         ; FIXUP section size
; section "function"
0000012: 08                                         ; string length
0000013: 6675 6e63 7469 6f6e                        ; section id: "function"
000001b: 00                                         ; section size (guess)
000001c: 01                                         ; num functions
000001d: 00                                         ; function 0 signature index
000001b: 02                                         ; FIXUP section size
; section "code"
000001e: 04                                         ; string length
000001f: 636f 6465                                  ; section id: "code"
0000023: 00                                         ; section size (guess)
0000024: 01                                         ; num functions
; function body 0
0000025: 00                                         ; func body size (guess)
0000026: 00                                         ; local decl count
0000027: 10                                         ; OPCODE_I32_CONST
0000028: 00                                         ; i32 literal
0000029: af                                         ; OPCODE_F64_CONVERT_U_I32
000002a: a0                                         ; OPCODE_I32_TRUNC_U_F64
000002b: ae                                         ; OPCODE_F64_CONVERT_S_I32
000002c: 9e                                         ; OPCODE_I32_TRUNC_S_F64
000002d: a9                                         ; OPCODE_F32_CONVERT_U_I32
000002e: 9f                                         ; OPCODE_I32_TRUNC_U_F32
000002f: a8                                         ; OPCODE_F32_CONVERT_S_I32
0000030: 9d                                         ; OPCODE_I32_TRUNC_S_F32
0000031: a7                                         ; OPCODE_I64_EXTEND_U_I32
0000032: a1                                         ; OPCODE_I32_WRAP_I64
0000033: 10                                         ; OPCODE_I32_CONST
0000034: 00                                         ; i32 literal
0000035: a6                                         ; OPCODE_I64_EXTEND_S_I32
0000036: b1                                         ; OPCODE_F64_CONVERT_U_I64
0000037: a5                                         ; OPCODE_I64_TRUNC_U_F64
0000038: b0                                         ; OPCODE_F64_CONVERT_S_I64
0000039: a3                                         ; OPCODE_I64_TRUNC_S_F64
000003a: ab                                         ; OPCODE_F32_CONVERT_U_I64
000003b: a4                                         ; OPCODE_I64_TRUNC_U_F32
000003c: aa                                         ; OPCODE_F32_CONVERT_S_I64
000003d: a2                                         ; OPCODE_I64_TRUNC_S_F32
000003e: 13                                         ; OPCODE_F32_CONST
000003f: 0000 0000                                  ; f32 literal
0000043: b2                                         ; OPCODE_F64_PROMOTE_F32
0000044: ac                                         ; OPCODE_F32_DEMOTE_F64
0000025: 1f                                         ; FIXUP func body size
0000023: 21                                         ; FIXUP section size
;; dump
0000000: 0061 736d 0b00 0000 0474 7970 6504 0140  
0000010: 0000 0866 756e 6374 696f 6e02 0100 0463  
0000020: 6f64 6521 011f 0010 00af a0ae 9ea9 9fa8  
0000030: 9da7 a110 00a6 b1a5 b0a3 aba4 aaa2 1300  
0000040: 0000 00b2 ac                             
;;; STDOUT ;;)
