# FLAGS: -dv
(module
  (func
    (i32.wrap/i64
      (i64.extend_u/i32
        (i32.trunc_s/f32
          (f32.convert_s/i32
            (i32.trunc_u/f32
              (f32.convert_u/i32
                (i32.trunc_s/f64
                  (f64.convert_s/i32
                    (i32.trunc_u/f64
                      (f64.convert_u/i32 (i32.const 0)))))))))))

    (i64.trunc_s/f32
      (f32.convert_s/i64
        (i64.trunc_u/f32
          (f32.convert_u/i64
            (i64.trunc_s/f64
              (f64.convert_s/i64
                (i64.trunc_u/f64
                  (f64.convert_u/i64
                    (i64.extend_s/i32 (i32.const 0))))))))))

    (f32.demote/f64
      (f64.promote/f32 (f32.const 0)))))
# STDOUT:
0000000: 14                                         ; mem size log 2
0000001: 01                                         ; export mem
0000002: 0000                                       ; num globals
0000004: 0100                                       ; num funcs
0000006: 0000                                       ; num data segments
0000008: 00                                         ; func num args
0000009: 00                                         ; func result type
000000a: 0000 0000                                  ; func name offset
000000e: 0000 0000                                  ; func code start offset
0000012: 0000 0000                                  ; func code end offset
0000016: 0000                                       ; num local i32
0000018: 0000                                       ; num local i64
000001a: 0000                                       ; num local f32
000001c: 0000                                       ; num local f64
000001e: 00                                         ; export func
000001f: 00                                         ; func external
000000e: 2000 0000                                  ; FIXUP func code start offset
0000020: a1                                         ; OPCODE_I32_CONVERT_I64
0000021: a7                                         ; OPCODE_I64_UCONVERT_I32
0000022: 9d                                         ; OPCODE_I32_SCONVERT_F32
0000023: a8                                         ; OPCODE_F32_SCONVERT_I32
0000024: 9f                                         ; OPCODE_I32_UCONVERT_F32
0000025: a9                                         ; OPCODE_F32_UCONVERT_I32
0000026: 9e                                         ; OPCODE_I32_SCONVERT_F64
0000027: ae                                         ; OPCODE_F64_SCONVERT_I32
0000028: a0                                         ; OPCODE_I32_UCONVERT_F64
0000029: af                                         ; OPCODE_F64_UCONVERT_I32
000002a: 11                                         ; OPCODE_I32_CONST
000002b: 0000 0000                                  ; u32 literal
000002f: a2                                         ; OPCODE_I64_SCONVERT_F32
0000030: aa                                         ; OPCODE_F32_SCONVERT_I64
0000031: a4                                         ; OPCODE_I64_UCONVERT_F32
0000032: ab                                         ; OPCODE_F32_UCONVERT_I64
0000033: a3                                         ; OPCODE_I64_SCONVERT_F64
0000034: b0                                         ; OPCODE_F64_SCONVERT_I64
0000035: a5                                         ; OPCODE_I64_UCONVERT_F64
0000036: b1                                         ; OPCODE_F64_UCONVERT_I64
0000037: a6                                         ; OPCODE_I64_SCONVERT_I32
0000038: 11                                         ; OPCODE_I32_CONST
0000039: 0000 0000                                  ; u32 literal
000003d: ac                                         ; OPCODE_F32_CONVERT_F64
000003e: b2                                         ; OPCODE_F64_CONVERT_F32
000003f: 14                                         ; OPCODE_F32_CONST
0000040: 0000 0000                                  ; f32 literal
0000012: 4400 0000                                  ; FIXUP func code end offset
0000000: 1401 0000 0100 0000 0000 0000 0000 2000  .............. .
0000010: 0000 4400 0000 0000 0000 0000 0000 0000  ..D.............
0000020: a1a7 9da8 9fa9 9eae a0af 1100 0000 00a2  ................
0000030: aaa4 aba3 b0a5 b1a6 1100 0000 00ac b214  ................
0000040: 0000 0000                                ....
