;;; FLAGS: -dv
(module
  (func
    (i32.wrap/i64
      (i64.extend_u/i32
        (i32.trunc_s/f32
          (f32.convert_s/i32
            (i32.trunc_u/f32
              (f32.convert_u/i32
                (i32.trunc_s/f64
                  (f64.convert_s/i32
                    (i32.trunc_u/f64
                      (f64.convert_u/i32 (i32.const 0)))))))))))

    (i64.trunc_s/f32
      (f32.convert_s/i64
        (i64.trunc_u/f32
          (f32.convert_u/i64
            (i64.trunc_s/f64
              (f64.convert_s/i64
                (i64.trunc_u/f64
                  (f64.convert_u/i64
                    (i64.extend_s/i32 (i32.const 0))))))))))

    (f32.demote/f64
      (f64.promote/f32 (f32.const 0)))))
(;; STDOUT ;;;
0000000: 01                                         ; WASM_SECTION_SIGNATURES
0000001: 01                                         ; num signatures
; signature 0
0000002: 00                                         ; num params
0000003: 00                                         ; result_type
0000004: 02                                         ; WASM_SECTION_FUNCTIONS
0000005: 01                                         ; num functions
; function 0
0000006: 00                                         ; func flags
0000007: 0000                                       ; func signature index
0000009: 0000                                       ; func body size
000000b: a1                                         ; OPCODE_I32_CONVERT_I64
000000c: a7                                         ; OPCODE_I64_UCONVERT_I32
000000d: 9d                                         ; OPCODE_I32_SCONVERT_F32
000000e: a8                                         ; OPCODE_F32_SCONVERT_I32
000000f: 9f                                         ; OPCODE_I32_UCONVERT_F32
0000010: a9                                         ; OPCODE_F32_UCONVERT_I32
0000011: 9e                                         ; OPCODE_I32_SCONVERT_F64
0000012: ae                                         ; OPCODE_F64_SCONVERT_I32
0000013: a0                                         ; OPCODE_I32_UCONVERT_F64
0000014: af                                         ; OPCODE_F64_UCONVERT_I32
0000015: 09                                         ; OPCODE_I8_CONST
0000016: 00                                         ; u8 literal
0000017: a2                                         ; OPCODE_I64_SCONVERT_F32
0000018: aa                                         ; OPCODE_F32_SCONVERT_I64
0000019: a4                                         ; OPCODE_I64_UCONVERT_F32
000001a: ab                                         ; OPCODE_F32_UCONVERT_I64
000001b: a3                                         ; OPCODE_I64_SCONVERT_F64
000001c: b0                                         ; OPCODE_F64_SCONVERT_I64
000001d: a5                                         ; OPCODE_I64_UCONVERT_F64
000001e: b1                                         ; OPCODE_F64_UCONVERT_I64
000001f: a6                                         ; OPCODE_I64_SCONVERT_I32
0000020: 09                                         ; OPCODE_I8_CONST
0000021: 00                                         ; u8 literal
0000022: ac                                         ; OPCODE_F32_CONVERT_F64
0000023: b2                                         ; OPCODE_F64_CONVERT_F32
0000024: 0d                                         ; OPCODE_F32_CONST
0000025: 0000 0000                                  ; f32 literal
0000009: 1e00                                       ; FIXUP func body size
0000029: 06                                         ; WASM_SECTION_END
;; dump
0000000: 0101 0000 0201 0000 001e 00a1 a79d a89f  
0000010: a99e aea0 af09 00a2 aaa4 aba3 b0a5 b1a6  
0000020: 0900 acb2 0d00 0000 0006                 
;;; STDOUT ;;)
