;;; FLAGS: -dv --debug-names
(module
  (func $F1 (param $F1P0 i32)
    (local $F1L1 f32)
    (local $F1L2 i32)
    (local i32))

  (func $F2 (param $F2P0 f32)
    (local $F2L1 f64)
    (local i64)
    (local $F2L3 i64)))
(;; STDOUT ;;;
0000000: 0061 736d                                  ; WASM_BINARY_MAGIC
0000004: 0c00 0000                                  ; WASM_BINARY_VERSION
; section "TYPE" (1)
0000008: 01                                         ; section code
0000009: 00                                         ; section size (guess)
000000a: 02                                         ; num types
; type 0
000000b: 40                                         ; function form
000000c: 01                                         ; num params
000000d: 01                                         ; param type
000000e: 00                                         ; num results
; type 1
000000f: 40                                         ; function form
0000010: 01                                         ; num params
0000011: 03                                         ; param type
0000012: 00                                         ; num results
0000009: 09                                         ; FIXUP section size
; section "FUNCTION" (3)
0000013: 03                                         ; section code
0000014: 00                                         ; section size (guess)
0000015: 02                                         ; num functions
0000016: 00                                         ; function 0 signature index
0000017: 01                                         ; function 1 signature index
0000014: 03                                         ; FIXUP section size
; section "CODE" (10)
0000018: 0a                                         ; section code
0000019: 00                                         ; section size (guess)
000001a: 02                                         ; num functions
; function body 0
000001b: 00                                         ; func body size (guess)
000001c: 02                                         ; local decl count
000001d: 01                                         ; local type count
000001e: 03                                         ; WASM_TYPE_F32
000001f: 02                                         ; local type count
0000020: 01                                         ; WASM_TYPE_I32
000001b: 05                                         ; FIXUP func body size
; function body 1
0000021: 00                                         ; func body size (guess)
0000022: 02                                         ; local decl count
0000023: 01                                         ; local type count
0000024: 04                                         ; WASM_TYPE_F64
0000025: 02                                         ; local type count
0000026: 02                                         ; WASM_TYPE_I64
0000021: 05                                         ; FIXUP func body size
0000019: 0d                                         ; FIXUP section size
; section "name"
0000027: 00                                         ; section size (guess)
0000028: 02                                         ; num functions
0000029: 03                                         ; string length
000002a: 2446 31                                  $F1  ; func name 0
000002d: 04                                         ; num locals
000002e: 05                                         ; string length
000002f: 2446 3150 30                             $F1P0  ; local name 0
0000034: 05                                         ; string length
0000035: 2446 314c 31                             $F1L1  ; local name 1
000003a: 05                                         ; string length
000003b: 2446 314c 32                             $F1L2  ; local name 2
0000040: 00                                         ; string length
0000041: 03                                         ; string length
0000042: 2446 32                                  $F2  ; func name 1
0000045: 04                                         ; num locals
0000046: 05                                         ; string length
0000047: 2446 3250 30                             $F2P0  ; local name 0
000004c: 05                                         ; string length
000004d: 2446 324c 31                             $F2L1  ; local name 1
0000052: 00                                         ; string length
0000053: 05                                         ; string length
0000054: 2446 324c 33                             $F2L3  ; local name 3
0000027: 31                                         ; FIXUP section size
;; dump
0000000: 0061 736d 0c00 0000 0109 0240 0101 0040  
0000010: 0103 0003 0302 0001 0a0d 0205 0201 0302  
0000020: 0105 0201 0402 0231 0203 2446 3104 0524  
0000030: 4631 5030 0524 4631 4c31 0524 4631 4c32  
0000040: 0003 2446 3204 0524 4632 5030 0524 4632  
0000050: 4c31 0005 2446 324c 33                   
;;; STDOUT ;;)
