;;; FLAGS: -dv --debug-names
(module
  (func $F1 (param $F1P0 i32)
    (local $F1L1 f32)
    (local $F1L2 i32)
    (local i32))

  (func $F2 (param $F2P0 f32)
    (local $F2L1 f64)
    (local i64)
    (local $F2L3 i64)))
(;; STDOUT ;;;
0000000: 0061 736d                                  ; WASM_BINARY_MAGIC
0000004: 0b00 0000                                  ; WASM_BINARY_VERSION
; section "type"
0000008: 04                                         ; string length
0000009: 7479 7065                                  ; section id: "type"
000000d: 00                                         ; section size (guess)
000000e: 02                                         ; num types
; type 0
000000f: 40                                         ; function form
0000010: 01                                         ; num params
0000011: 01                                         ; param type
0000012: 00                                         ; num results
; type 1
0000013: 40                                         ; function form
0000014: 01                                         ; num params
0000015: 03                                         ; param type
0000016: 00                                         ; num results
000000d: 09                                         ; FIXUP section size
; section "function"
0000017: 08                                         ; string length
0000018: 6675 6e63 7469 6f6e                        ; section id: "function"
0000020: 00                                         ; section size (guess)
0000021: 02                                         ; num functions
0000022: 00                                         ; function 0 signature index
0000023: 01                                         ; function 1 signature index
0000020: 03                                         ; FIXUP section size
; section "code"
0000024: 04                                         ; string length
0000025: 636f 6465                                  ; section id: "code"
0000029: 00                                         ; section size (guess)
000002a: 02                                         ; num functions
; function body 0
000002b: 00                                         ; func body size (guess)
000002c: 02                                         ; local decl count
000002d: 02                                         ; local type count
000002e: 01                                         ; WASM_TYPE_I32
000002f: 01                                         ; local type count
0000030: 03                                         ; WASM_TYPE_F32
000002b: 05                                         ; FIXUP func body size
; function body 1
0000031: 00                                         ; func body size (guess)
0000032: 02                                         ; local decl count
0000033: 02                                         ; local type count
0000034: 02                                         ; WASM_TYPE_I64
0000035: 01                                         ; local type count
0000036: 04                                         ; WASM_TYPE_F64
0000031: 05                                         ; FIXUP func body size
0000029: 0d                                         ; FIXUP section size
; section "name"
0000037: 04                                         ; string length
0000038: 6e61 6d65                                  ; section id: "name"
000003c: 00                                         ; section size (guess)
000003d: 02                                         ; num functions
000003e: 03                                         ; string length
000003f: 2446 31                                  $F1  ; func name 0
0000042: 04                                         ; num locals
0000043: 05                                         ; string length
0000044: 2446 3150 30                             $F1P0  ; remapped local name 0
0000049: 05                                         ; string length
000004a: 2446 314c 32                             $F1L2  ; remapped local name 1
000004f: 00                                         ; string length
0000050: 05                                         ; string length
0000051: 2446 314c 31                             $F1L1  ; remapped local name 3
0000056: 03                                         ; string length
0000057: 2446 32                                  $F2  ; func name 1
000005a: 04                                         ; num locals
000005b: 05                                         ; string length
000005c: 2446 3250 30                             $F2P0  ; remapped local name 0
0000061: 00                                         ; string length
0000062: 05                                         ; string length
0000063: 2446 324c 33                             $F2L3  ; remapped local name 2
0000068: 05                                         ; string length
0000069: 2446 324c 31                             $F2L1  ; remapped local name 3
000003c: 31                                         ; FIXUP section size
;; dump
0000000: 0061 736d 0b00 0000 0474 7970 6509 0240  
0000010: 0101 0040 0103 0008 6675 6e63 7469 6f6e  
0000020: 0302 0001 0463 6f64 650d 0205 0202 0101  
0000030: 0305 0202 0201 0404 6e61 6d65 3102 0324  
0000040: 4631 0405 2446 3150 3005 2446 314c 3200  
0000050: 0524 4631 4c31 0324 4632 0405 2446 3250  
0000060: 3000 0524 4632 4c33 0524 4632 4c31       
;;; STDOUT ;;)
