;;; FLAGS: -dv
(module
  (type (func (param i32) (result i64)))
  (func (param i32) (result i64) (i64.const 0))
  (import "foo" "bar" (param i32) (result i64)))
(;; STDOUT ;;;
0000000: 0061 736d                                  ; WASM_BINARY_MAGIC
0000004: 0a00 0000                                  ; WASM_BINARY_VERSION
0000008: 01                                         ; WASM_BINARY_SECTION_SIGNATURES
0000009: 01                                         ; num signatures
; signature 0
000000a: 01                                         ; num params
000000b: 02                                         ; result_type
000000c: 01                                         ; param type
000000d: 08                                         ; WASM_BINARY_SECTION_IMPORTS
000000e: 01                                         ; num imports
; import header 0
000000f: 0000                                       ; import signature index
0000011: 0000 0000                                  ; import module name offset
0000015: 0000 0000                                  ; import function name offset
0000019: 02                                         ; WASM_BINARY_SECTION_FUNCTIONS
000001a: 01                                         ; num functions
; function 0
000001b: 00                                         ; func flags
000001c: 0000                                       ; func signature index
000001e: 0000                                       ; func body size
0000020: 00                                         ; local decl count
0000020: 00                                         ; local decl count
0000021: 0b                                         ; OPCODE_I64_CONST
0000022: 00                                         ; i64 literal
000001e: 0300                                       ; FIXUP func body size
0000023: 06                                         ; WASM_BINARY_SECTION_END
; import 0
0000011: 2400 0000                                  ; FIXUP import module name offset
0000024: 666f 6f                                    ; import module name
0000027: 00                                         ; \0
0000015: 2800 0000                                  ; FIXUP import function name offset
0000028: 6261 72                                    ; import function name
000002b: 00                                         ; \0
;; dump
0000000: 0061 736d 0a00 0000 0101 0102 0108 0100  
0000010: 0024 0000 0028 0000 0002 0100 0000 0300  
0000020: 000b 0006 666f 6f00 6261 7200            
;;; STDOUT ;;)
