;;; FLAGS: -dv
(module
  (type (func (param i32) (result i64)))
  (func (param i32) (result i64) (i64.const 0))
  (import "foo" "bar" (param i32) (result i64)))
(;; STDOUT ;;;
0000000: 0061 736d                                  ; WASM_BINARY_MAGIC
0000004: 0a00 0000                                  ; WASM_BINARY_VERSION
0000008: 01                                         ; WASM_BINARY_SECTION_SIGNATURES
0000009: 01                                         ; num signatures
; signature 0
000000a: 01                                         ; num params
000000b: 02                                         ; result_type
000000c: 01                                         ; param type
000000d: 08                                         ; WASM_BINARY_SECTION_IMPORTS
000000e: 01                                         ; num imports
; import header 0
000000f: 0000                                       ; import signature index
0000011: 0000 0000                                  ; import module name offset
0000015: 0000 0000                                  ; import function name offset
0000019: 02                                         ; WASM_BINARY_SECTION_FUNCTIONS
000001a: 01                                         ; num functions
; function 0
000001b: 00                                         ; func flags
000001c: 0000                                       ; func signature index
000001e: 0000                                       ; func body size
0000020: 0b                                         ; OPCODE_I64_CONST
0000021: 0000 0000 0000 0000                        ; u64 literal
000001e: 0900                                       ; FIXUP func body size
0000029: 06                                         ; WASM_BINARY_SECTION_END
; import 0
0000011: 2a00 0000                                  ; FIXUP import module name offset
000002a: 666f 6f                                    ; import module name
000002d: 00                                         ; \0
0000015: 2e00 0000                                  ; FIXUP import function name offset
000002e: 6261 72                                    ; import function name
0000031: 00                                         ; \0
;; dump
0000000: 0061 736d 0a00 0000 0101 0102 0108 0100  
0000010: 002a 0000 002e 0000 0002 0100 0000 0900  
0000020: 0b00 0000 0000 0000 0006 666f 6f00 6261  
0000030: 7200                                     
;;; STDOUT ;;)
