;;; FLAGS: -dv
(module
  (type (func (param i32) (result i64)))
  (func (param i32) (result i64) (i64.const 0))
  (import "foo" "bar" (param i32) (result i64)))
(;; STDOUT ;;;
0000000: 0061 736d                                  ; WASM_BINARY_MAGIC
0000004: 0a00 0000                                  ; WASM_BINARY_VERSION
0000008: 01                                         ; WASM_BINARY_SECTION_SIGNATURES
0000009: 01                                         ; num signatures
; signature 0
000000a: 01                                         ; num params
000000b: 02                                         ; result_type
000000c: 01                                         ; param type
000000d: 08                                         ; WASM_BINARY_SECTION_IMPORTS
000000e: 01                                         ; num imports
; import header 0
000000f: 00                                         ; import signature index
0000010: 03                                         ; string length
0000011: 666f 6f                                    ; import module name
0000014: 03                                         ; string length
0000015: 6261 72                                    ; import function name
0000018: 0a                                         ; WASM_BINARY_SECTION_FUNCTION_SIGNATURES
0000019: 01                                         ; num functions
000001a: 00                                         ; function 0 signature index
000001b: 0b                                         ; WASM_BINARY_SECTION_FUNCTION_BODIES
000001c: 01                                         ; num functions
; function body 0
000001d: 00                                         ; func body size (guess)
000001e: 00                                         ; local decl count
000001f: 0b                                         ; OPCODE_I64_CONST
0000020: 00                                         ; i64 literal
000001d: 03                                         ; FIXUP func body size
0000021: 06                                         ; WASM_BINARY_SECTION_END
;; dump
0000000: 0061 736d 0a00 0000 0101 0102 0108 0100  
0000010: 0366 6f6f 0362 6172 0a01 000b 0103 000b  
0000020: 0006                                     
;;; STDOUT ;;)
