;;; FLAGS: -dv
(module
  (type (func (param i32) (result i64)))
  (func (param i32) (result i64) (i64.const 0))
  (import "foo" "bar" (param i32) (result i64)))
(;; STDOUT ;;;
0000000: 00                                         ; WASM_SECTION_MEMORY
0000001: 00                                         ; min mem size log 2
0000002: 00                                         ; max mem size log 2
0000003: 01                                         ; export mem
0000004: 01                                         ; WASM_SECTION_SIGNATURES
0000005: 01                                         ; num signatures
; signature 0
0000006: 01                                         ; num args
0000007: 02                                         ; result_type
0000008: 01                                         ; arg type
0000009: 02                                         ; WASM_SECTION_FUNCTIONS
000000a: 02                                         ; num functions
; import header 0
000000b: 03                                         ; import flags
000000c: 0000                                       ; import signature index
000000e: 0000 0000                                  ; import name offset
; function 0
0000012: 01                                         ; func flags
0000013: 0000                                       ; func signature index
0000015: 0000 0000                                  ; func name offset
0000019: 0000                                       ; func body size
000001b: 12                                         ; OPCODE_I64_CONST
000001c: 0000 0000 0000 0000                        ; u64 literal
0000019: 0900                                       ; FIXUP func body size
0000024: 06                                         ; WASM_SECTION_END
; names
000000e: 2500 0000                                  ; FIXUP import name offset
0000025: 6261 7200                                  ; import name
0000000: 0000 0001 0101 0102 0102 0203 0000 2500  ..............%.
0000010: 0000 0100 0000 0000 0009 0012 0000 0000  ................
0000020: 0000 0000 0662 6172 00                   .....bar.
;;; STDOUT ;;)
