;;; FLAGS: -dv
(module
  (type (func (param i32) (result i64)))
  (func (param i32) (result i64) (i64.const 0))
  (import "foo" "bar" (param i32) (result i64)))
(;; STDOUT ;;;
0000000: 0061 736d                                  ; WASM_BINARY_MAGIC
0000004: 0a00 0000                                  ; WASM_BINARY_VERSION
0000008: 01                                         ; WASM_BINARY_SECTION_SIGNATURES
0000009: 01                                         ; num signatures
; signature 0
000000a: 01                                         ; num params
000000b: 02                                         ; result_type
000000c: 01                                         ; param type
000000d: 08                                         ; WASM_BINARY_SECTION_IMPORTS
000000e: 01                                         ; num imports
; import header 0
000000f: 00                                         ; import signature index
0000010: 03                                         ; string length
0000011: 666f 6f                                    ; import module name
0000014: 03                                         ; string length
0000015: 6261 72                                    ; import function name
0000018: 02                                         ; WASM_BINARY_SECTION_FUNCTIONS
0000019: 01                                         ; num functions
; function 0
000001a: 00                                         ; func flags
000001b: 0000                                       ; func signature index
000001d: 0000                                       ; func body size
000001f: 00                                         ; local decl count
0000020: 0b                                         ; OPCODE_I64_CONST
0000021: 00                                         ; i64 literal
000001d: 0300                                       ; FIXUP func body size
0000022: 06                                         ; WASM_BINARY_SECTION_END
;; dump
0000000: 0061 736d 0a00 0000 0101 0102 0108 0100  
0000010: 0366 6f6f 0362 6172 0201 0000 0003 0000  
0000020: 0b00 06                                  
;;; STDOUT ;;)
