;;; FLAGS: -dv
(module
  (type (func (param i32) (result i64)))
  (func (param i32) (result i64) (i64.const 0))
  (import "foo" "bar" (param i32) (result i64)))
(;; STDOUT ;;;
0000000: 0061 736d                                  ; WASM_BINARY_MAGIC
0000004: 0a00 0000                                  ; WASM_BINARY_VERSION
; section "signatures"
0000008: 00                                         ; section size (guess)
0000009: 0a                                         ; string length
000000a: 7369 676e 6174 7572 6573                   ; section id: "signatures"
0000014: 01                                         ; num signatures
; signature 0
0000015: 01                                         ; num params
0000016: 02                                         ; result_type
0000017: 01                                         ; param type
0000008: 0f                                         ; FIXUP section size
; section "import_table"
0000018: 00                                         ; section size (guess)
0000019: 0c                                         ; string length
000001a: 696d 706f 7274 5f74 6162 6c65              ; section id: "import_table"
0000026: 01                                         ; num imports
; import header 0
0000027: 00                                         ; import signature index
0000028: 03                                         ; string length
0000029: 666f 6f                                  foo  ; import module name
000002c: 03                                         ; string length
000002d: 6261 72                                  bar  ; import function name
0000018: 17                                         ; FIXUP section size
; section "function_signatures"
0000030: 00                                         ; section size (guess)
0000031: 13                                         ; string length
0000032: 6675 6e63 7469 6f6e 5f73 6967 6e61 7475  
0000042: 7265 73                                    ; section id: "function_signatures"
0000045: 01                                         ; num functions
0000046: 00                                         ; function 0 signature index
0000030: 16                                         ; FIXUP section size
; section "function_bodies"
0000047: 00                                         ; section size (guess)
0000048: 0f                                         ; string length
0000049: 6675 6e63 7469 6f6e 5f62 6f64 6965 73      ; section id: "function_bodies"
0000058: 01                                         ; num functions
; function body 0
0000059: 00                                         ; func body size (guess)
000005a: 00                                         ; local decl count
000005b: 0b                                         ; OPCODE_I64_CONST
000005c: 00                                         ; i64 literal
0000059: 03                                         ; FIXUP func body size
0000047: 15                                         ; FIXUP section size
;; dump
0000000: 0061 736d 0a00 0000 0f0a 7369 676e 6174  
0000010: 7572 6573 0101 0201 170c 696d 706f 7274  
0000020: 5f74 6162 6c65 0100 0366 6f6f 0362 6172  
0000030: 1613 6675 6e63 7469 6f6e 5f73 6967 6e61  
0000040: 7475 7265 7301 0015 0f66 756e 6374 696f  
0000050: 6e5f 626f 6469 6573 0103 000b 00         
;;; STDOUT ;;)
