;;; FLAGS: -dv
(module
  (type (func (param i32) (result i64)))
  (func (param i32) (result i64) (i64.const 0))
  (import "foo" "bar" (param i32) (result i64)))
(;; STDOUT ;;;
0000000: 0061 736d                                  ; WASM_BINARY_MAGIC
0000004: 0b00 0000                                  ; WASM_BINARY_VERSION
; section "type"
0000008: 04                                         ; string length
0000009: 7479 7065                                  ; section id: "type"
000000d: 00                                         ; section size (guess)
000000e: 01                                         ; num types
; type 0
000000f: 40                                         ; function form
0000010: 01                                         ; num params
0000011: 01                                         ; param type
0000012: 01                                         ; num results
0000013: 02                                         ; result_type
000000d: 06                                         ; FIXUP section size
; section "import"
0000014: 06                                         ; string length
0000015: 696d 706f 7274                             ; section id: "import"
000001b: 00                                         ; section size (guess)
000001c: 01                                         ; num imports
; import header 0
000001d: 00                                         ; import signature index
000001e: 03                                         ; string length
000001f: 666f 6f                                  foo  ; import module name
0000022: 03                                         ; string length
0000023: 6261 72                                  bar  ; import function name
000001b: 0a                                         ; FIXUP section size
; section "function"
0000026: 08                                         ; string length
0000027: 6675 6e63 7469 6f6e                        ; section id: "function"
000002f: 00                                         ; section size (guess)
0000030: 01                                         ; num functions
0000031: 00                                         ; function 0 signature index
000002f: 02                                         ; FIXUP section size
; section "code"
0000032: 04                                         ; string length
0000033: 636f 6465                                  ; section id: "code"
0000037: 00                                         ; section size (guess)
0000038: 01                                         ; num functions
; function body 0
0000039: 00                                         ; func body size (guess)
000003a: 00                                         ; local decl count
000003b: 11                                         ; OPCODE_I64_CONST
000003c: 00                                         ; i64 literal
0000039: 03                                         ; FIXUP func body size
0000037: 05                                         ; FIXUP section size
;; dump
0000000: 0061 736d 0b00 0000 0474 7970 6506 0140  
0000010: 0101 0102 0669 6d70 6f72 740a 0100 0366  
0000020: 6f6f 0362 6172 0866 756e 6374 696f 6e02  
0000030: 0100 0463 6f64 6505 0103 0011 00         
;;; STDOUT ;;)
