;;; TOOL: run-objdump
;;; ARGS0: -v
;;; ARGS1: -x
(module
  (except)
  (except i32)
  (except f32 f64))
(;; STDOUT ;;;
0000000: 0061 736d                                 ; WASM_BINARY_MAGIC
0000004: 0100 0000                                 ; WASM_BINARY_VERSION
; section "Event" (13)
0000008: 0d                                        ; section code
0000009: 00                                        ; section size (guess)
000000a: 03                                        ; exception count
000000b: 00                                        ; exception type count
000000c: 01                                        ; exception type count
000000d: 7f                                        ; i32
000000e: 02                                        ; exception type count
000000f: 7d                                        ; f32
0000010: 7c                                        ; f64
0000009: 07                                        ; FIXUP section size

except.wasm:	file format wasm 0x1

Section Details:

Event[3]:
 - except[0] ()
 - except[1] (i32)
 - except[2] (f32, f64)

Code Disassembly:

;;; STDOUT ;;)
