;;; FLAGS: -dv
(module
  (func (nop))
  (export "a" 0)
  (export "b" 0))
(;; STDOUT ;;;
0000000: 01                                         ; WASM_BINARY_SECTION_SIGNATURES
0000001: 01                                         ; num signatures
; signature 0
0000002: 00                                         ; num params
0000003: 00                                         ; result_type
0000004: 02                                         ; WASM_BINARY_SECTION_FUNCTIONS
0000005: 01                                         ; num functions
; function 0
0000006: 00                                         ; func flags
0000007: 0000                                       ; func signature index
0000009: 0000                                       ; func body size
000000b: 00                                         ; OPCODE_NOP
0000009: 0100                                       ; FIXUP func body size
000000c: 09                                         ; WASM_BINARY_SECTION_EXPORTS
000000d: 02                                         ; num exports
000000e: 0000                                       ; export func index
0000010: 0000 0000                                  ; export name offset
0000014: 0000                                       ; export func index
0000016: 0000 0000                                  ; export name offset
000001a: 06                                         ; WASM_BINARY_SECTION_END
; export 0
0000010: 1b00 0000                                  ; FIXUP func name offset
000001b: 61                                         ; export name
000001c: 00                                         ; \0
; export 1
0000016: 1d00 0000                                  ; FIXUP func name offset
000001d: 62                                         ; export name
000001e: 00                                         ; \0
;; dump
0000000: 0101 0000 0201 0000 0001 0000 0902 0000  
0000010: 1b00 0000 0000 1d00 0000 0661 0062 00    
;;; STDOUT ;;)
