;;; FLAGS: -dv
(module
  (func (nop))
  (export "a" (func 0))
  (export "b" (func 0)))
(;; STDOUT ;;;
0000000: 0061 736d                                  ; WASM_BINARY_MAGIC
0000004: 0c00 0000                                  ; WASM_BINARY_VERSION
; section "TYPE" (1)
0000008: 01                                         ; section code
0000009: 00                                         ; section size (guess)
000000a: 01                                         ; num types
; type 0
000000b: 40                                         ; function form
000000c: 00                                         ; num params
000000d: 00                                         ; num results
0000009: 04                                         ; FIXUP section size
; section "FUNCTION" (3)
000000e: 03                                         ; section code
000000f: 00                                         ; section size (guess)
0000010: 01                                         ; num functions
0000011: 00                                         ; function 0 signature index
000000f: 02                                         ; FIXUP section size
; section "EXPORT" (7)
0000012: 07                                         ; section code
0000013: 00                                         ; section size (guess)
0000014: 02                                         ; num exports
0000015: 01                                         ; string length
0000016: 61                                       a  ; export name
0000017: 00                                         ; export kind
0000018: 00                                         ; export func index
0000019: 01                                         ; string length
000001a: 62                                       b  ; export name
000001b: 00                                         ; export kind
000001c: 00                                         ; export func index
0000013: 09                                         ; FIXUP section size
; section "CODE" (10)
000001d: 0a                                         ; section code
000001e: 00                                         ; section size (guess)
000001f: 01                                         ; num functions
; function body 0
0000020: 00                                         ; func body size (guess)
0000021: 00                                         ; local decl count
0000022: 0a                                         ; OPCODE_NOP
0000020: 02                                         ; FIXUP func body size
000001e: 04                                         ; FIXUP section size
;; dump
0000000: 0061 736d 0c00 0000 0104 0140 0000 0302  
0000010: 0100 0709 0201 6100 0001 6200 000a 0401  
0000020: 0200 0a                                  
;;; STDOUT ;;)
