;;; FLAGS: -dv
(module
  (func (result i32)
    (block $exit i32
      (drop
        (br_if $exit (i32.const 42) (i32.const 0)))
      (i32.const 29))))
(;; STDOUT ;;;
0000000: 0061 736d                                  ; WASM_BINARY_MAGIC
0000004: 0c00 0000                                  ; WASM_BINARY_VERSION
; section "TYPE" (1)
0000008: 01                                         ; section code
0000009: 00                                         ; section size (guess)
000000a: 01                                         ; num types
; type 0
000000b: 40                                         ; function form
000000c: 00                                         ; num params
000000d: 01                                         ; num results
000000e: 01                                         ; result type
0000009: 05                                         ; FIXUP section size
; section "FUNCTION" (3)
000000f: 03                                         ; section code
0000010: 00                                         ; section size (guess)
0000011: 01                                         ; num functions
0000012: 00                                         ; function 0 signature index
0000010: 02                                         ; FIXUP section size
; section "CODE" (10)
0000013: 0a                                         ; section code
0000014: 00                                         ; section size (guess)
0000015: 01                                         ; num functions
; function body 0
0000016: 00                                         ; func body size (guess)
0000017: 00                                         ; local decl count
0000018: 01                                         ; OPCODE_BLOCK
0000019: 01                                         ; WASM_TYPE_I32
000001a: 10                                         ; OPCODE_I32_CONST
000001b: 2a                                         ; i32 literal
000001c: 10                                         ; OPCODE_I32_CONST
000001d: 00                                         ; i32 literal
000001e: 07                                         ; OPCODE_BR_IF
000001f: 00                                         ; break depth
0000020: 0b                                         ; OPCODE_DROP
0000021: 10                                         ; OPCODE_I32_CONST
0000022: 1d                                         ; i32 literal
0000023: 0f                                         ; OPCODE_END
0000016: 0d                                         ; FIXUP func body size
0000014: 0f                                         ; FIXUP section size
;; dump
0000000: 0061 736d 0c00 0000 0105 0140 0001 0103  
0000010: 0201 000a 0f01 0d00 0101 102a 1000 0700  
0000020: 0b10 1d0f                                
;;; STDOUT ;;)
