;;; FLAGS: -dv
(module
  (func (result i32)
    (block $exit
      (br_if $exit (i32.const 42) (i32.const 0))
      (i32.const 29))))
(;; STDOUT ;;;
0000000: 0061 736d                                  ; WASM_BINARY_MAGIC
0000004: 0a00 0000                                  ; WASM_BINARY_VERSION
0000008: 01                                         ; WASM_BINARY_SECTION_SIGNATURES
0000009: 01                                         ; num signatures
; signature 0
000000a: 00                                         ; num params
000000b: 01                                         ; result_type
000000c: 02                                         ; WASM_BINARY_SECTION_FUNCTIONS
000000d: 01                                         ; num functions
; function 0
000000e: 00                                         ; func flags
000000f: 0000                                       ; func signature index
0000011: 0000                                       ; func body size
0000013: 00                                         ; local decl count
0000014: 01                                         ; OPCODE_BLOCK
0000015: 02                                         ; num expressions
0000016: 07                                         ; OPCODE_BR_IF
0000017: 01                                         ; break arity
0000018: 00                                         ; break depth
0000019: 0a                                         ; OPCODE_I32_CONST
000001a: 2a                                         ; i32 literal
000001b: 0a                                         ; OPCODE_I32_CONST
000001c: 00                                         ; i32 literal
000001d: 0a                                         ; OPCODE_I32_CONST
000001e: 1d                                         ; i32 literal
0000011: 0c00                                       ; FIXUP func body size
000001f: 06                                         ; WASM_BINARY_SECTION_END
;; dump
0000000: 0061 736d 0a00 0000 0101 0001 0201 0000  
0000010: 000c 0000 0102 0701 000a 2a0a 000a 1d06  
;;; STDOUT ;;)
