;;; TOOL: run-wasmdump
;;; FLAGS: -v
(module
  (func (result i32)
    (block $exit i32
      (drop
        (br_if $exit (i32.const 42) (i32.const 0)))
      (i32.const 29))))
(;; STDOUT ;;;
0000000: 0061 736d                                 ; WASM_BINARY_MAGIC
0000004: 0c00 0000                                 ; WASM_BINARY_VERSION
; section "TYPE" (1)
0000008: 01                                        ; section code
0000009: 00                                        ; section size (guess)
000000a: 01                                        ; num types
; type 0
000000b: 40                                        ; function form
000000c: 00                                        ; num params
000000d: 01                                        ; num results
000000e: 01                                        ; result type
0000009: 05                                        ; FIXUP section size
; section "FUNCTION" (3)
000000f: 03                                        ; section code
0000010: 00                                        ; section size (guess)
0000011: 01                                        ; num functions
0000012: 00                                        ; function 0 signature index
0000010: 02                                        ; FIXUP section size
; section "CODE" (10)
0000013: 0a                                        ; section code
0000014: 00                                        ; section size (guess)
0000015: 01                                        ; num functions
; function body 0
0000016: 00                                        ; func body size (guess)
0000017: 00                                        ; local decl count
0000018: 01                                        ; block
0000019: 01                                        ; WASM_TYPE_I32
000001a: 10                                        ; i32.const
000001b: 2a                                        ; i32 literal
000001c: 10                                        ; i32.const
000001d: 00                                        ; i32 literal
000001e: 07                                        ; br_if
000001f: 00                                        ; break depth
0000020: 0b                                        ; drop
0000021: 10                                        ; i32.const
0000022: 1d                                        ; i32 literal
0000023: 0f                                        ; end
0000024: 0f                                        ; end
0000016: 0e                                        ; FIXUP func body size
0000014: 10                                        ; FIXUP section size
func 0
 000018: 01 01                      | block i32
 00001a: 10 2a                      |   i32.const 0x2a
 00001c: 10 00                      |   i32.const 0
 00001e: 07 00                      |   br_if 0
 000020: 0b                         |   drop
 000021: 10 1d                      |   i32.const 0x1d
 000023: 0f                         | end
;;; STDOUT ;;)
