;;; FLAGS: -dv
(module
  (func (result i32)
    block i32
      i32.const 1
      br 0 
    end))

(;; STDOUT ;;;
0000000: 0061 736d                                 ; WASM_BINARY_MAGIC
0000004: 0c00 0000                                 ; WASM_BINARY_VERSION
; section "TYPE" (1)
0000008: 01                                        ; section code
0000009: 00                                        ; section size (guess)
000000a: 01                                        ; num types
; type 0
000000b: 40                                        ; function form
000000c: 00                                        ; num params
000000d: 01                                        ; num results
000000e: 01                                        ; result type
0000009: 05                                        ; FIXUP section size
; section "FUNCTION" (3)
000000f: 03                                        ; section code
0000010: 00                                        ; section size (guess)
0000011: 01                                        ; num functions
0000012: 00                                        ; function 0 signature index
0000010: 02                                        ; FIXUP section size
; section "CODE" (10)
0000013: 0a                                        ; section code
0000014: 00                                        ; section size (guess)
0000015: 01                                        ; num functions
; function body 0
0000016: 00                                        ; func body size (guess)
0000017: 00                                        ; local decl count
0000018: 01                                        ; block
0000019: 01                                        ; WASM_TYPE_I32
000001a: 10                                        ; i32.const
000001b: 01                                        ; i32 literal
000001c: 06                                        ; br
000001d: 00                                        ; break depth
000001e: 0f                                        ; end
000001f: 0f                                        ; end
0000016: 09                                        ; FIXUP func body size
0000014: 0b                                        ; FIXUP section size
;; dump
0000000: 0061 736d 0c00 0000 0105 0140 0001 0103 
0000010: 0201 000a 0b01 0900 0101 1001 0600 0f0f 
;;; STDOUT ;;)
