;;; FLAGS: -dv
(module
  (func)
  (export "foo" 0))
(;; STDOUT ;;;
0000000: 01                                         ; WASM_BINARY_SECTION_SIGNATURES
0000001: 01                                         ; num signatures
; signature 0
0000002: 00                                         ; num params
0000003: 00                                         ; result_type
0000004: 02                                         ; WASM_BINARY_SECTION_FUNCTIONS
0000005: 01                                         ; num functions
; function 0
0000006: 00                                         ; func flags
0000007: 0000                                       ; func signature index
0000009: 0000                                       ; func body size
0000009: 0000                                       ; FIXUP func body size
000000b: 09                                         ; WASM_BINARY_SECTION_EXPORTS
000000c: 01                                         ; num exports
000000d: 0000                                       ; export func index
000000f: 0000 0000                                  ; export name offset
0000013: 06                                         ; WASM_BINARY_SECTION_END
; export 0
000000f: 1400 0000                                  ; FIXUP func name offset
0000014: 666f 6f                                    ; export name
0000017: 00                                         ; \0
;; dump
0000000: 0101 0000 0201 0000 0000 0009 0100 0014  
0000010: 0000 0006 666f 6f00                      
;;; STDOUT ;;)
