;;; FLAGS: -dv
(module
  (func)
  (export "foo" 0))
(;; STDOUT ;;;
0000000: 0061 736d                                  ; WASM_BINARY_MAGIC
0000004: 0a00 0000                                  ; WASM_BINARY_VERSION
0000008: 01                                         ; WASM_BINARY_SECTION_SIGNATURES
0000009: 01                                         ; num signatures
; signature 0
000000a: 00                                         ; num params
000000b: 00                                         ; result_type
000000c: 02                                         ; WASM_BINARY_SECTION_FUNCTIONS
000000d: 01                                         ; num functions
; function 0
000000e: 00                                         ; func flags
000000f: 0000                                       ; func signature index
0000011: 0000                                       ; func body size
0000013: 00                                         ; local decl count
0000013: 00                                         ; local decl count
0000011: 0100                                       ; FIXUP func body size
0000014: 09                                         ; WASM_BINARY_SECTION_EXPORTS
0000015: 01                                         ; num exports
0000016: 0000                                       ; export func index
0000018: 0000 0000                                  ; export name offset
000001c: 06                                         ; WASM_BINARY_SECTION_END
; export 0
0000018: 1d00 0000                                  ; FIXUP func name offset
000001d: 666f 6f                                    ; export name
0000020: 00                                         ; \0
;; dump
0000000: 0061 736d 0a00 0000 0101 0000 0201 0000  
0000010: 0001 0000 0901 0000 1d00 0000 0666 6f6f  
0000020: 00                                       
;;; STDOUT ;;)
