;;; FLAGS: -dv
(module
  (func)
  (func)
  (func))
(;; STDOUT ;;;
0000000: 0061 736d                                  ; WASM_BINARY_MAGIC
0000004: 0a00 0000                                  ; WASM_BINARY_VERSION
0000008: 01                                         ; WASM_BINARY_SECTION_SIGNATURES
0000009: 01                                         ; num signatures
; signature 0
000000a: 00                                         ; num params
000000b: 00                                         ; result_type
000000c: 0a                                         ; WASM_BINARY_SECTION_FUNCTION_SIGNATURES
000000d: 03                                         ; num functions
000000e: 00                                         ; function 0 signature index
000000f: 00                                         ; function 1 signature index
0000010: 00                                         ; function 2 signature index
0000011: 0b                                         ; WASM_BINARY_SECTION_FUNCTION_BODIES
0000012: 03                                         ; num functions
; function body 0
0000013: 00                                         ; func body size (guess)
0000014: 00                                         ; local decl count
0000013: 01                                         ; FIXUP func body size
; function body 1
0000015: 00                                         ; func body size (guess)
0000016: 00                                         ; local decl count
0000015: 01                                         ; FIXUP func body size
; function body 2
0000017: 00                                         ; func body size (guess)
0000018: 00                                         ; local decl count
0000017: 01                                         ; FIXUP func body size
0000019: 06                                         ; WASM_BINARY_SECTION_END
;; dump
0000000: 0061 736d 0a00 0000 0101 0000 0a03 0000  
0000010: 000b 0301 0001 0001 0006                 
;;; STDOUT ;;)
