;;; FLAGS: -dv
(module
  (func $my-func))
(;; STDOUT ;;;
0000000: 01                                         ; WASM_SECTION_SIGNATURES
0000001: 01                                         ; num signatures
; signature 0
0000002: 00                                         ; num params
0000003: 00                                         ; result_type
0000004: 02                                         ; WASM_SECTION_FUNCTIONS
0000005: 01                                         ; num functions
; function 0
0000006: 00                                         ; func flags
0000007: 0000                                       ; func signature index
0000009: 0000                                       ; func body size
0000009: 0000                                       ; FIXUP func body size
000000b: 06                                         ; WASM_SECTION_END
;; dump
0000000: 0101 0000 0201 0000 0000 0006            
;;; STDOUT ;;)
