;;; FLAGS: -dv
(module
  (func)
  (export "foo" 0))
(;; STDOUT ;;;
0000000: 0061 736d                                  ; WASM_BINARY_MAGIC
0000004: 0c00 0000                                  ; WASM_BINARY_VERSION
; section "type"
0000008: 04                                         ; string length
0000009: 7479 7065                                  ; section id: "type"
000000d: 00                                         ; section size (guess)
000000e: 01                                         ; num types
; type 0
000000f: 40                                         ; function form
0000010: 00                                         ; num params
0000011: 00                                         ; num results
000000d: 04                                         ; FIXUP section size
; section "function"
0000012: 08                                         ; string length
0000013: 6675 6e63 7469 6f6e                        ; section id: "function"
000001b: 00                                         ; section size (guess)
000001c: 01                                         ; num functions
000001d: 00                                         ; function 0 signature index
000001b: 02                                         ; FIXUP section size
; section "export"
000001e: 06                                         ; string length
000001f: 6578 706f 7274                             ; section id: "export"
0000025: 00                                         ; section size (guess)
0000026: 01                                         ; num exports
0000027: 00                                         ; export func index
0000028: 03                                         ; string length
0000029: 666f 6f                                  foo  ; export name
0000025: 06                                         ; FIXUP section size
; section "code"
000002c: 04                                         ; string length
000002d: 636f 6465                                  ; section id: "code"
0000031: 00                                         ; section size (guess)
0000032: 01                                         ; num functions
; function body 0
0000033: 00                                         ; func body size (guess)
0000034: 00                                         ; local decl count
0000033: 01                                         ; FIXUP func body size
0000031: 03                                         ; FIXUP section size
;; dump
0000000: 0061 736d 0c00 0000 0474 7970 6504 0140  
0000010: 0000 0866 756e 6374 696f 6e02 0100 0665  
0000020: 7870 6f72 7406 0100 0366 6f6f 0463 6f64  
0000030: 6503 0101 00                             
;;; STDOUT ;;)
