;;; TOOL: run-wasmdump
;;; FLAGS: -v
(module
  (func)
  (export "foo" (func 0)))
(;; STDOUT ;;;
0000000: 0061 736d                                 ; WASM_BINARY_MAGIC
0000004: 0100 0000                                 ; WASM_BINARY_VERSION
; section "TYPE" (1)
0000008: 01                                        ; section code
0000009: 00                                        ; section size (guess)
000000a: 01                                        ; num types
; type 0
000000b: 60                                        ; func
000000c: 00                                        ; num params
000000d: 00                                        ; num results
0000009: 04                                        ; FIXUP section size
; section "FUNCTION" (3)
000000e: 03                                        ; section code
000000f: 00                                        ; section size (guess)
0000010: 01                                        ; num functions
0000011: 00                                        ; function 0 signature index
000000f: 02                                        ; FIXUP section size
; section "EXPORT" (7)
0000012: 07                                        ; section code
0000013: 00                                        ; section size (guess)
0000014: 01                                        ; num exports
0000015: 03                                        ; string length
0000016: 666f 6f                                  foo  ; export name
0000019: 00                                        ; export kind
000001a: 00                                        ; export func index
0000013: 07                                        ; FIXUP section size
; section "CODE" (10)
000001b: 0a                                        ; section code
000001c: 00                                        ; section size (guess)
000001d: 01                                        ; num functions
; function body 0
000001e: 00                                        ; func body size (guess)
000001f: 00                                        ; local decl count
0000020: 0b                                        ; end
000001e: 02                                        ; FIXUP func body size
000001c: 04                                        ; FIXUP section size
func-exported.wasm:	file format wasm 0x000001

Code Disassembly:

00001e func[0]:
;;; STDOUT ;;)
