;;; FLAGS: -dv
(module
  (func)
  (func)
  (func))
(;; STDOUT ;;;
0000000: 0061 736d                                  ; WASM_BINARY_MAGIC
0000004: 0a00 0000                                  ; WASM_BINARY_VERSION
; section "signatures"
0000008: 00                                         ; section size (guess)
0000009: 0a                                         ; string length
000000a: 7369 676e 6174 7572 6573                   ; section id: "signatures"
0000014: 01                                         ; num signatures
; signature 0
0000015: 00                                         ; num params
0000016: 00                                         ; result_type
0000008: 0e                                         ; FIXUP section size
; section "function_signatures"
0000017: 00                                         ; section size (guess)
0000018: 13                                         ; string length
0000019: 6675 6e63 7469 6f6e 5f73 6967 6e61 7475  
0000029: 7265 73                                    ; section id: "function_signatures"
000002c: 03                                         ; num functions
000002d: 00                                         ; function 0 signature index
000002e: 00                                         ; function 1 signature index
000002f: 00                                         ; function 2 signature index
0000017: 18                                         ; FIXUP section size
; section "function_bodies"
0000030: 00                                         ; section size (guess)
0000031: 0f                                         ; string length
0000032: 6675 6e63 7469 6f6e 5f62 6f64 6965 73      ; section id: "function_bodies"
0000041: 03                                         ; num functions
; function body 0
0000042: 00                                         ; func body size (guess)
0000043: 00                                         ; local decl count
0000042: 01                                         ; FIXUP func body size
; function body 1
0000044: 00                                         ; func body size (guess)
0000045: 00                                         ; local decl count
0000044: 01                                         ; FIXUP func body size
; function body 2
0000046: 00                                         ; func body size (guess)
0000047: 00                                         ; local decl count
0000046: 01                                         ; FIXUP func body size
0000030: 17                                         ; FIXUP section size
; section "end"
0000048: 00                                         ; section size (guess)
0000049: 03                                         ; string length
000004a: 656e 64                                    ; section id: "end"
0000048: 04                                         ; FIXUP section size
;; dump
0000000: 0061 736d 0a00 0000 0e0a 7369 676e 6174  
0000010: 7572 6573 0100 0018 1366 756e 6374 696f  
0000020: 6e5f 7369 676e 6174 7572 6573 0300 0000  
0000030: 170f 6675 6e63 7469 6f6e 5f62 6f64 6965  
0000040: 7303 0100 0100 0100 0403 656e 64         
;;; STDOUT ;;)
