;;; FLAGS: -dv
(module
  (func)
  (export "foo" 0))
(;; STDOUT ;;;
0000000: 0061 736d                                  ; WASM_BINARY_MAGIC
0000004: 0a00 0000                                  ; WASM_BINARY_VERSION
0000008: 01                                         ; WASM_BINARY_SECTION_SIGNATURES
0000009: 01                                         ; num signatures
; signature 0
000000a: 00                                         ; num params
000000b: 00                                         ; result_type
000000c: 0a                                         ; WASM_BINARY_SECTION_FUNCTION_SIGNATURES
000000d: 01                                         ; num functions
000000e: 00                                         ; function 0 signature index
000000f: 0b                                         ; WASM_BINARY_SECTION_FUNCTION_BODIES
0000010: 01                                         ; num functions
; function body 0
0000011: 00                                         ; func body size (guess)
0000012: 00                                         ; local decl count
0000011: 01                                         ; FIXUP func body size
0000013: 09                                         ; WASM_BINARY_SECTION_EXPORTS
0000014: 01                                         ; num exports
0000015: 00                                         ; export func index
0000016: 03                                         ; string length
0000017: 666f 6f                                    ; export name
000001a: 06                                         ; WASM_BINARY_SECTION_END
;; dump
0000000: 0061 736d 0a00 0000 0101 0000 0a01 000b  
0000010: 0101 0009 0100 0366 6f6f 06              
;;; STDOUT ;;)
