;;; FLAGS: -dv
(module
  (global i32 (i32.const 0))
  (func (result i32)
    (get_global 0)))
(;; STDOUT ;;;
0000000: 0061 736d                                  ; WASM_BINARY_MAGIC
0000004: 0c00 0000                                  ; WASM_BINARY_VERSION
; section "TYPE" (1)
0000008: 01                                         ; section code
0000009: 00                                         ; section size (guess)
000000a: 01                                         ; num types
; type 0
000000b: 40                                         ; function form
000000c: 00                                         ; num params
000000d: 01                                         ; num results
000000e: 01                                         ; result type
0000009: 05                                         ; FIXUP section size
; section "FUNCTION" (3)
000000f: 03                                         ; section code
0000010: 00                                         ; section size (guess)
0000011: 01                                         ; num functions
0000012: 00                                         ; function 0 signature index
0000010: 02                                         ; FIXUP section size
; section "GLOBAL" (6)
0000013: 06                                         ; section code
0000014: 00                                         ; section size (guess)
0000015: 01                                         ; num globals
0000016: 01                                         ; WASM_TYPE_I32
0000017: 00                                         ; global mutability
0000018: 10                                         ; OPCODE_I32_CONST
0000019: 00                                         ; i32 literal
000001a: 0f                                         ; OPCODE_END
0000014: 06                                         ; FIXUP section size
; section "CODE" (10)
000001b: 0a                                         ; section code
000001c: 00                                         ; section size (guess)
000001d: 01                                         ; num functions
; function body 0
000001e: 00                                         ; func body size (guess)
000001f: 00                                         ; local decl count
0000020: bb                                         ; OPCODE_GET_GLOBAL
0000021: 00                                         ; global index
000001e: 03                                         ; FIXUP func body size
000001c: 05                                         ; FIXUP section size
;; dump
0000000: 0061 736d 0c00 0000 0105 0140 0001 0103  
0000010: 0201 0006 0601 0100 1000 0f0a 0501 0300  
0000020: bb00                                     
;;; STDOUT ;;)
