;;; FLAGS: -dv
(module
  (func
    ;; i32               0   1
    ;; i64           2                   3
    ;; f32       4               5
    ;; f64   6                       7
    (local f64 f32 i64 i32 i32 f32 f64 i64)
    (get_local 0)
    (get_local 1)
    (get_local 2)
    (get_local 3)
    (get_local 4)
    (get_local 5)
    (get_local 6)
    (get_local 7)))
(;; STDOUT ;;;
0000000: 0061 736d                                  ; WASM_BINARY_MAGIC
0000004: 0a00 0000                                  ; WASM_BINARY_VERSION
0000008: 01                                         ; WASM_BINARY_SECTION_SIGNATURES
0000009: 01                                         ; num signatures
; signature 0
000000a: 00                                         ; num params
000000b: 00                                         ; result_type
000000c: 02                                         ; WASM_BINARY_SECTION_FUNCTIONS
000000d: 01                                         ; num functions
; function 0
000000e: 04                                         ; func flags
000000f: 0000                                       ; func signature index
0000011: 0200                                       ; num local i32
0000013: 0200                                       ; num local i64
0000015: 0200                                       ; num local f32
0000017: 0200                                       ; num local f64
0000019: 0000                                       ; func body size
000001b: 0e                                         ; OPCODE_GET_LOCAL
000001c: 06                                         ; remapped local index
000001d: 0e                                         ; OPCODE_GET_LOCAL
000001e: 04                                         ; remapped local index
000001f: 0e                                         ; OPCODE_GET_LOCAL
0000020: 02                                         ; remapped local index
0000021: 0e                                         ; OPCODE_GET_LOCAL
0000022: 00                                         ; remapped local index
0000023: 0e                                         ; OPCODE_GET_LOCAL
0000024: 01                                         ; remapped local index
0000025: 0e                                         ; OPCODE_GET_LOCAL
0000026: 05                                         ; remapped local index
0000027: 0e                                         ; OPCODE_GET_LOCAL
0000028: 07                                         ; remapped local index
0000029: 0e                                         ; OPCODE_GET_LOCAL
000002a: 03                                         ; remapped local index
0000019: 1000                                       ; FIXUP func body size
000002b: 06                                         ; WASM_BINARY_SECTION_END
;; dump
0000000: 0061 736d 0a00 0000 0101 0000 0201 0400  
0000010: 0002 0002 0002 0002 0010 000e 060e 040e  
0000020: 020e 000e 010e 050e 070e 0306            
;;; STDOUT ;;)
