;;; FLAGS: -dv
(module
  ;;             0   1
  (func (param i32 f32)
    ;; i32           2
    ;; i64   3
    ;; f32       4       5
    (local i64 f32 i32 f32)
    (get_local 0)
    (get_local 1)
    (get_local 2)
    (get_local 3)
    (get_local 4)
    (get_local 5)))
(;; STDOUT ;;;
0000000: 0061 736d                                  ; WASM_BINARY_MAGIC
0000004: 0a00 0000                                  ; WASM_BINARY_VERSION
0000008: 01                                         ; WASM_BINARY_SECTION_SIGNATURES
0000009: 01                                         ; num signatures
; signature 0
000000a: 02                                         ; num params
000000b: 00                                         ; result_type
000000c: 01                                         ; param type
000000d: 03                                         ; param type
000000e: 0a                                         ; WASM_BINARY_SECTION_FUNCTION_SIGNATURES
000000f: 01                                         ; num functions
0000010: 00                                         ; function 0 signature index
0000011: 0b                                         ; WASM_BINARY_SECTION_FUNCTION_BODIES
0000012: 01                                         ; num functions
; function body 0
0000013: 00                                         ; func body size (guess)
0000014: 03                                         ; local decl count
0000015: 01                                         ; local i32 count
0000016: 01                                         ; WASM_TYPE_I32
0000017: 01                                         ; local i64 count
0000018: 02                                         ; WASM_TYPE_I64
0000019: 02                                         ; local f32 count
000001a: 03                                         ; WASM_TYPE_F32
000001b: 0e                                         ; OPCODE_GET_LOCAL
000001c: 00                                         ; remapped local index
000001d: 0e                                         ; OPCODE_GET_LOCAL
000001e: 01                                         ; remapped local index
000001f: 0e                                         ; OPCODE_GET_LOCAL
0000020: 03                                         ; remapped local index
0000021: 0e                                         ; OPCODE_GET_LOCAL
0000022: 04                                         ; remapped local index
0000023: 0e                                         ; OPCODE_GET_LOCAL
0000024: 02                                         ; remapped local index
0000025: 0e                                         ; OPCODE_GET_LOCAL
0000026: 05                                         ; remapped local index
0000013: 13                                         ; FIXUP func body size
0000027: 06                                         ; WASM_BINARY_SECTION_END
;; dump
0000000: 0061 736d 0a00 0000 0101 0200 0103 0a01  
0000010: 000b 0113 0301 0101 0202 030e 000e 010e  
0000020: 030e 040e 020e 0506                      
;;; STDOUT ;;)
