;;; FLAGS: -dv
(module
  (func
    ;; i32               0   1
    ;; i64           2                   3
    ;; f32       4               5
    ;; f64   6                       7
    (local f64 f32 i64 i32 i32 f32 f64 i64)
    (get_local 0)
    (get_local 1)
    (get_local 2)
    (get_local 3)
    (get_local 4)
    (get_local 5)
    (get_local 6)
    (get_local 7)))
(;; STDOUT ;;;
0000000: 0061 736d                                  ; WASM_BINARY_MAGIC
0000004: 0b00 0000                                  ; WASM_BINARY_VERSION
; section "type"
0000008: 04                                         ; string length
0000009: 7479 7065                                  ; section id: "type"
000000d: 00                                         ; section size (guess)
000000e: 01                                         ; num types
; type 0
000000f: 40                                         ; function form
0000010: 00                                         ; num params
0000011: 00                                         ; num results
000000d: 04                                         ; FIXUP section size
; section "function"
0000012: 08                                         ; string length
0000013: 6675 6e63 7469 6f6e                        ; section id: "function"
000001b: 00                                         ; section size (guess)
000001c: 01                                         ; num functions
000001d: 00                                         ; function 0 signature index
000001b: 02                                         ; FIXUP section size
; section "code"
000001e: 04                                         ; string length
000001f: 636f 6465                                  ; section id: "code"
0000023: 00                                         ; section size (guess)
0000024: 01                                         ; num functions
; function body 0
0000025: 00                                         ; func body size (guess)
0000026: 04                                         ; local decl count
0000027: 02                                         ; local type count
0000028: 01                                         ; WASM_TYPE_I32
0000029: 02                                         ; local type count
000002a: 02                                         ; WASM_TYPE_I64
000002b: 02                                         ; local type count
000002c: 03                                         ; WASM_TYPE_F32
000002d: 02                                         ; local type count
000002e: 04                                         ; WASM_TYPE_F64
000002f: 14                                         ; OPCODE_GET_LOCAL
0000030: 06                                         ; remapped local index
0000031: 14                                         ; OPCODE_GET_LOCAL
0000032: 04                                         ; remapped local index
0000033: 14                                         ; OPCODE_GET_LOCAL
0000034: 02                                         ; remapped local index
0000035: 14                                         ; OPCODE_GET_LOCAL
0000036: 00                                         ; remapped local index
0000037: 14                                         ; OPCODE_GET_LOCAL
0000038: 01                                         ; remapped local index
0000039: 14                                         ; OPCODE_GET_LOCAL
000003a: 05                                         ; remapped local index
000003b: 14                                         ; OPCODE_GET_LOCAL
000003c: 07                                         ; remapped local index
000003d: 14                                         ; OPCODE_GET_LOCAL
000003e: 03                                         ; remapped local index
0000025: 19                                         ; FIXUP func body size
0000023: 1b                                         ; FIXUP section size
;; dump
0000000: 0061 736d 0b00 0000 0474 7970 6504 0140  
0000010: 0000 0866 756e 6374 696f 6e02 0100 0463  
0000020: 6f64 651b 0119 0402 0102 0202 0302 0414  
0000030: 0614 0414 0214 0014 0114 0514 0714 03    
;;; STDOUT ;;)
