;;; FLAGS: -dv
(module
  (func
    ;; i32               0   1
    ;; i64           2                   3
    ;; f32       4               5
    ;; f64   6                       7
    (local f64 f32 i64 i32 i32 f32 f64 i64)
    (get_local 0)
    (get_local 1)
    (get_local 2)
    (get_local 3)
    (get_local 4)
    (get_local 5)
    (get_local 6)
    (get_local 7)))
(;; STDOUT ;;;
0000000: 0061 736d                                  ; WASM_BINARY_MAGIC
0000004: 0a00 0000                                  ; WASM_BINARY_VERSION
0000008: 01                                         ; WASM_BINARY_SECTION_SIGNATURES
0000009: 01                                         ; num signatures
; signature 0
000000a: 00                                         ; num params
000000b: 00                                         ; result_type
000000c: 02                                         ; WASM_BINARY_SECTION_FUNCTIONS
000000d: 01                                         ; num functions
; function 0
000000e: 00                                         ; func flags
000000f: 0000                                       ; func signature index
0000011: 0000                                       ; func body size
0000013: 00                                         ; local decl count
0000014: 02                                         ; local i32 count
0000015: 01                                         ; type i32
0000016: 02                                         ; local i64 count
0000017: 02                                         ; type i64
0000018: 02                                         ; local f32 count
0000019: 03                                         ; type f32
000001a: 02                                         ; local f64 count
000001b: 04                                         ; type f64
0000013: 04                                         ; local decl count
000001c: 0e                                         ; OPCODE_GET_LOCAL
000001d: 06                                         ; remapped local index
000001e: 0e                                         ; OPCODE_GET_LOCAL
000001f: 04                                         ; remapped local index
0000020: 0e                                         ; OPCODE_GET_LOCAL
0000021: 02                                         ; remapped local index
0000022: 0e                                         ; OPCODE_GET_LOCAL
0000023: 00                                         ; remapped local index
0000024: 0e                                         ; OPCODE_GET_LOCAL
0000025: 01                                         ; remapped local index
0000026: 0e                                         ; OPCODE_GET_LOCAL
0000027: 05                                         ; remapped local index
0000028: 0e                                         ; OPCODE_GET_LOCAL
0000029: 07                                         ; remapped local index
000002a: 0e                                         ; OPCODE_GET_LOCAL
000002b: 03                                         ; remapped local index
0000011: 1900                                       ; FIXUP func body size
000002c: 06                                         ; WASM_BINARY_SECTION_END
;; dump
0000000: 0061 736d 0a00 0000 0101 0000 0201 0000  
0000010: 0019 0004 0201 0202 0203 0204 0e06 0e04  
0000020: 0e02 0e00 0e01 0e05 0e07 0e03 06         
;;; STDOUT ;;)
