;;; FLAGS: -dv
(module
  ;;             0   1
  (func (param i32 f32)
    ;; i32           2
    ;; i64   3
    ;; f32       4       5
    (local i64 f32 i32 f32)
    (get_local 0)
    (get_local 1)
    (get_local 2)
    (get_local 3)
    (get_local 4)
    (get_local 5)))
(;; STDOUT ;;;
0000000: 0061 736d                                  ; WASM_BINARY_MAGIC
0000004: 0a00 0000                                  ; WASM_BINARY_VERSION
0000008: 01                                         ; WASM_BINARY_SECTION_SIGNATURES
0000009: 01                                         ; num signatures
; signature 0
000000a: 02                                         ; num params
000000b: 00                                         ; result_type
000000c: 01                                         ; param type
000000d: 03                                         ; param type
000000e: 02                                         ; WASM_BINARY_SECTION_FUNCTIONS
000000f: 01                                         ; num functions
; function 0
0000010: 00                                         ; func flags
0000011: 0000                                       ; func signature index
0000013: 0000                                       ; func body size
0000015: 03                                         ; local decl count
0000016: 01                                         ; local i32 count
0000017: 01                                         ; WASM_TYPE_I32
0000018: 01                                         ; local i64 count
0000019: 02                                         ; WASM_TYPE_I64
000001a: 02                                         ; local f32 count
000001b: 03                                         ; WASM_TYPE_F32
000001c: 0e                                         ; OPCODE_GET_LOCAL
000001d: 00                                         ; remapped local index
000001e: 0e                                         ; OPCODE_GET_LOCAL
000001f: 01                                         ; remapped local index
0000020: 0e                                         ; OPCODE_GET_LOCAL
0000021: 03                                         ; remapped local index
0000022: 0e                                         ; OPCODE_GET_LOCAL
0000023: 04                                         ; remapped local index
0000024: 0e                                         ; OPCODE_GET_LOCAL
0000025: 02                                         ; remapped local index
0000026: 0e                                         ; OPCODE_GET_LOCAL
0000027: 05                                         ; remapped local index
0000013: 1300                                       ; FIXUP func body size
0000028: 06                                         ; WASM_BINARY_SECTION_END
;; dump
0000000: 0061 736d 0a00 0000 0101 0200 0103 0201  
0000010: 0000 0013 0003 0101 0102 0203 0e00 0e01  
0000020: 0e03 0e04 0e02 0e05 06                   
;;; STDOUT ;;)
