;;; FLAGS: -dv
(module
  (func
    ;; i32               0   1
    ;; i64           2                   3
    ;; f32       4               5
    ;; f64   6                       7
    (local f64 f32 i64 i32 i32 f32 f64 i64)
    (get_local 0)
    (get_local 1)
    (get_local 2)
    (get_local 3)
    (get_local 4)
    (get_local 5)
    (get_local 6)
    (get_local 7)))
(;; STDOUT ;;;
0000000: 00                                         ; WASM_SECTION_MEMORY
0000001: 00                                         ; min mem size log 2
0000002: 00                                         ; max mem size log 2
0000003: 01                                         ; export mem
0000004: 01                                         ; WASM_SECTION_SIGNATURES
0000005: 01                                         ; num signatures
; signature 0
0000006: 00                                         ; num args
0000007: 00                                         ; result_type
0000008: 02                                         ; WASM_SECTION_FUNCTIONS
0000009: 01                                         ; num functions
; function 0
000000a: 05                                         ; func flags
000000b: 0000                                       ; func signature index
000000d: 0000 0000                                  ; func name offset
0000011: 0200                                       ; num local i32
0000013: 0200                                       ; num local i64
0000015: 0200                                       ; num local f32
0000017: 0200                                       ; num local f64
0000019: 0000                                       ; func body size
000001b: 0e                                         ; OPCODE_GET_LOCAL
000001c: 06                                         ; remapped local index
000001d: 0e                                         ; OPCODE_GET_LOCAL
000001e: 04                                         ; remapped local index
000001f: 0e                                         ; OPCODE_GET_LOCAL
0000020: 02                                         ; remapped local index
0000021: 0e                                         ; OPCODE_GET_LOCAL
0000022: 00                                         ; remapped local index
0000023: 0e                                         ; OPCODE_GET_LOCAL
0000024: 01                                         ; remapped local index
0000025: 0e                                         ; OPCODE_GET_LOCAL
0000026: 05                                         ; remapped local index
0000027: 0e                                         ; OPCODE_GET_LOCAL
0000028: 07                                         ; remapped local index
0000029: 0e                                         ; OPCODE_GET_LOCAL
000002a: 03                                         ; remapped local index
0000019: 1000                                       ; FIXUP func body size
000002b: 06                                         ; WASM_SECTION_END
; names
0000000: 0000 0001 0101 0000 0201 0500 0000 0000  ................
0000010: 0002 0002 0002 0002 0010 000e 060e 040e  ................
0000020: 020e 000e 010e 050e 070e 0306            ............
;;; STDOUT ;;)
