;;; FLAGS: -dv
(module
  ;;             0   1
  (func (param i32 f32)
    ;; i32           2
    ;; i64   3
    ;; f32       4       5
    (local i64 f32 i32 f32)
    (get_local 0)
    (get_local 1)
    (get_local 2)
    (get_local 3)
    (get_local 4)
    (get_local 5)))
(;; STDOUT ;;;
0000000: 0061 736d                                  ; WASM_BINARY_MAGIC
0000004: 0a00 0000                                  ; WASM_BINARY_VERSION
; section "signatures"
0000008: 00                                         ; section size (guess)
0000009: 0a                                         ; string length
000000a: 7369 676e 6174 7572 6573                   ; section id: "signatures"
0000014: 01                                         ; num signatures
; signature 0
0000015: 02                                         ; num params
0000016: 00                                         ; result_type
0000017: 01                                         ; param type
0000018: 03                                         ; param type
0000008: 10                                         ; FIXUP section size
; section "function_signatures"
0000019: 00                                         ; section size (guess)
000001a: 13                                         ; string length
000001b: 6675 6e63 7469 6f6e 5f73 6967 6e61 7475  
000002b: 7265 73                                    ; section id: "function_signatures"
000002e: 01                                         ; num functions
000002f: 00                                         ; function 0 signature index
0000019: 16                                         ; FIXUP section size
; section "function_bodies"
0000030: 00                                         ; section size (guess)
0000031: 0f                                         ; string length
0000032: 6675 6e63 7469 6f6e 5f62 6f64 6965 73      ; section id: "function_bodies"
0000041: 01                                         ; num functions
; function body 0
0000042: 00                                         ; func body size (guess)
0000043: 03                                         ; local decl count
0000044: 01                                         ; local type count
0000045: 01                                         ; WASM_TYPE_I32
0000046: 01                                         ; local type count
0000047: 02                                         ; WASM_TYPE_I64
0000048: 02                                         ; local type count
0000049: 03                                         ; WASM_TYPE_F32
000004a: 0e                                         ; OPCODE_GET_LOCAL
000004b: 00                                         ; remapped local index
000004c: 0e                                         ; OPCODE_GET_LOCAL
000004d: 01                                         ; remapped local index
000004e: 0e                                         ; OPCODE_GET_LOCAL
000004f: 03                                         ; remapped local index
0000050: 0e                                         ; OPCODE_GET_LOCAL
0000051: 04                                         ; remapped local index
0000052: 0e                                         ; OPCODE_GET_LOCAL
0000053: 02                                         ; remapped local index
0000054: 0e                                         ; OPCODE_GET_LOCAL
0000055: 05                                         ; remapped local index
0000042: 13                                         ; FIXUP func body size
0000030: 25                                         ; FIXUP section size
;; dump
0000000: 0061 736d 0a00 0000 100a 7369 676e 6174  
0000010: 7572 6573 0102 0001 0316 1366 756e 6374  
0000020: 696f 6e5f 7369 676e 6174 7572 6573 0100  
0000030: 250f 6675 6e63 7469 6f6e 5f62 6f64 6965  
0000040: 7301 1303 0101 0102 0203 0e00 0e01 0e03  
0000050: 0e04 0e02 0e05                           
;;; STDOUT ;;)
