;;; FLAGS: -dv
(module
  ;;             0   1
  (func (param i32 f32)
    ;; i32           2
    ;; i64   3
    ;; f32       4       5
    (local i64 f32 i32 f32)
    (get_local 0)
    (get_local 1)
    (get_local 2)
    (get_local 3)
    (get_local 4)
    (get_local 5)))
(;; STDOUT ;;;
0000000: 0061 736d                                  ; WASM_BINARY_MAGIC
0000004: 0a00 0000                                  ; WASM_BINARY_VERSION
0000008: 01                                         ; WASM_BINARY_SECTION_SIGNATURES
0000009: 01                                         ; num signatures
; signature 0
000000a: 02                                         ; num params
000000b: 00                                         ; result_type
000000c: 01                                         ; param type
000000d: 03                                         ; param type
000000e: 02                                         ; WASM_BINARY_SECTION_FUNCTIONS
000000f: 01                                         ; num functions
; function 0
0000010: 04                                         ; func flags
0000011: 0000                                       ; func signature index
0000013: 0100                                       ; num local i32
0000015: 0100                                       ; num local i64
0000017: 0200                                       ; num local f32
0000019: 0000                                       ; num local f64
000001b: 0000                                       ; func body size
000001d: 0e                                         ; OPCODE_GET_LOCAL
000001e: 00                                         ; remapped local index
000001f: 0e                                         ; OPCODE_GET_LOCAL
0000020: 01                                         ; remapped local index
0000021: 0e                                         ; OPCODE_GET_LOCAL
0000022: 03                                         ; remapped local index
0000023: 0e                                         ; OPCODE_GET_LOCAL
0000024: 04                                         ; remapped local index
0000025: 0e                                         ; OPCODE_GET_LOCAL
0000026: 02                                         ; remapped local index
0000027: 0e                                         ; OPCODE_GET_LOCAL
0000028: 05                                         ; remapped local index
000001b: 0c00                                       ; FIXUP func body size
0000029: 06                                         ; WASM_BINARY_SECTION_END
;; dump
0000000: 0061 736d 0a00 0000 0101 0200 0103 0201  
0000010: 0400 0001 0001 0002 0000 000c 000e 000e  
0000020: 010e 030e 040e 020e 0506                 
;;; STDOUT ;;)
