;;; FLAGS: -dv
(module
  (func
    ;; i32               0   1
    ;; i64           2                   3
    ;; f32       4               5
    ;; f64   6                       7
    (local f64 f32 i64 i32 i32 f32 f64 i64)
    (get_local 0)
    (get_local 1)
    (get_local 2)
    (get_local 3)
    (get_local 4)
    (get_local 5)
    (get_local 6)
    (get_local 7)))
(;; STDOUT ;;;
0000000: 01                                         ; WASM_BINARY_SECTION_SIGNATURES
0000001: 01                                         ; num signatures
; signature 0
0000002: 00                                         ; num params
0000003: 00                                         ; result_type
0000004: 02                                         ; WASM_BINARY_SECTION_FUNCTIONS
0000005: 01                                         ; num functions
; function 0
0000006: 04                                         ; func flags
0000007: 0000                                       ; func signature index
0000009: 0200                                       ; num local i32
000000b: 0200                                       ; num local i64
000000d: 0200                                       ; num local f32
000000f: 0200                                       ; num local f64
0000011: 0000                                       ; func body size
0000013: 0e                                         ; OPCODE_GET_LOCAL
0000014: 06                                         ; remapped local index
0000015: 0e                                         ; OPCODE_GET_LOCAL
0000016: 04                                         ; remapped local index
0000017: 0e                                         ; OPCODE_GET_LOCAL
0000018: 02                                         ; remapped local index
0000019: 0e                                         ; OPCODE_GET_LOCAL
000001a: 00                                         ; remapped local index
000001b: 0e                                         ; OPCODE_GET_LOCAL
000001c: 01                                         ; remapped local index
000001d: 0e                                         ; OPCODE_GET_LOCAL
000001e: 05                                         ; remapped local index
000001f: 0e                                         ; OPCODE_GET_LOCAL
0000020: 07                                         ; remapped local index
0000021: 0e                                         ; OPCODE_GET_LOCAL
0000022: 03                                         ; remapped local index
0000011: 1000                                       ; FIXUP func body size
0000023: 06                                         ; WASM_BINARY_SECTION_END
;; dump
0000000: 0101 0000 0201 0400 0002 0002 0002 0002  
0000010: 0010 000e 060e 040e 020e 000e 010e 050e  
0000020: 070e 0306                                
;;; STDOUT ;;)
