;;; TOOL: run-wasmdump
;;; FLAGS: -v
(module
  (global i32 (i32.const 1))
  (global i64 (i64.const 2))
  (global f32 (f32.const 3))
  (global f64 (f64.const 4))

  (global i32 (get_global 0))
  (global i64 (get_global 1))
  (global f32 (get_global 2))
  (global f64 (get_global 3)))
(;; STDOUT ;;;
0000000: 0061 736d                                 ; WASM_BINARY_MAGIC
0000004: 0d00 0000                                 ; WASM_BINARY_VERSION
; section "GLOBAL" (6)
0000008: 06                                        ; section code
0000009: 00                                        ; section size (guess)
000000a: 08                                        ; num globals
000000b: 7f                                        ; i32
000000c: 00                                        ; global mutability
000000d: 41                                        ; i32.const
000000e: 01                                        ; i32 literal
000000f: 0b                                        ; end
0000010: 7e                                        ; i64
0000011: 00                                        ; global mutability
0000012: 42                                        ; i64.const
0000013: 02                                        ; i64 literal
0000014: 0b                                        ; end
0000015: 7d                                        ; f32
0000016: 00                                        ; global mutability
0000017: 43                                        ; f32.const
0000018: 0000 4040                                 ; f32 literal
000001c: 0b                                        ; end
000001d: 7c                                        ; f64
000001e: 00                                        ; global mutability
000001f: 44                                        ; f64.const
0000020: 0000 0000 0000 1040                       ; f64 literal
0000028: 0b                                        ; end
0000029: 7f                                        ; i32
000002a: 00                                        ; global mutability
000002b: 23                                        ; get_global
000002c: 00                                        ; global index
000002d: 0b                                        ; end
000002e: 7e                                        ; i64
000002f: 00                                        ; global mutability
0000030: 23                                        ; get_global
0000031: 01                                        ; global index
0000032: 0b                                        ; end
0000033: 7d                                        ; f32
0000034: 00                                        ; global mutability
0000035: 23                                        ; get_global
0000036: 02                                        ; global index
0000037: 0b                                        ; end
0000038: 7c                                        ; f64
0000039: 00                                        ; global mutability
000003a: 23                                        ; get_global
000003b: 03                                        ; global index
000003c: 0b                                        ; end
0000009: 33                                        ; FIXUP section size
;;; STDOUT ;;)
