;;; FLAGS: -dv
(module
  (global i32 (i32.const 1))
  (global i64 (i64.const 2))
  (global f32 (f32.const 3))
  (global f64 (f64.const 4))

  (global i32 (get_global 0))
  (global i64 (get_global 1))
  (global f32 (get_global 2))
  (global f64 (get_global 3)))
(;; STDOUT ;;;
0000000: 0061 736d                                  ; WASM_BINARY_MAGIC
0000004: 0c00 0000                                  ; WASM_BINARY_VERSION
; section "global"
0000008: 06                                         ; string length
0000009: 676c 6f62 616c                             ; section id: "global"
000000f: 00                                         ; section size (guess)
0000010: 08                                         ; num globals
0000011: 01                                         ; WASM_TYPE_I32
0000012: 10                                         ; OPCODE_I32_CONST
0000013: 01                                         ; i32 literal
0000014: 0f                                         ; OPCODE_END
0000015: 02                                         ; WASM_TYPE_I64
0000016: 11                                         ; OPCODE_I64_CONST
0000017: 02                                         ; i64 literal
0000018: 0f                                         ; OPCODE_END
0000019: 03                                         ; WASM_TYPE_F32
000001a: 13                                         ; OPCODE_F32_CONST
000001b: 0000 4040                                  ; f32 literal
000001f: 0f                                         ; OPCODE_END
0000020: 04                                         ; WASM_TYPE_F64
0000021: 12                                         ; OPCODE_F64_CONST
0000022: 0000 0000 0000 1040                        ; f64 literal
000002a: 0f                                         ; OPCODE_END
000002b: 01                                         ; WASM_TYPE_I32
000002c: bb                                         ; OPCODE_GET_GLOBAL
000002d: 00                                         ; global index
000002e: 0f                                         ; OPCODE_END
000002f: 02                                         ; WASM_TYPE_I64
0000030: bb                                         ; OPCODE_GET_GLOBAL
0000031: 01                                         ; global index
0000032: 0f                                         ; OPCODE_END
0000033: 03                                         ; WASM_TYPE_F32
0000034: bb                                         ; OPCODE_GET_GLOBAL
0000035: 02                                         ; global index
0000036: 0f                                         ; OPCODE_END
0000037: 04                                         ; WASM_TYPE_F64
0000038: bb                                         ; OPCODE_GET_GLOBAL
0000039: 03                                         ; global index
000003a: 0f                                         ; OPCODE_END
000000f: 2b                                         ; FIXUP section size
;; dump
0000000: 0061 736d 0c00 0000 0667 6c6f 6261 6c2b  
0000010: 0801 1001 0f02 1102 0f03 1300 0040 400f  
0000020: 0412 0000 0000 0000 1040 0f01 bb00 0f02  
0000030: bb01 0f03 bb02 0f04 bb03 0f              
;;; STDOUT ;;)
