;;; FLAGS: -dv
(module
  (global i32 i64 f32 f64))
(;; STDOUT ;;;
0000000: 00                                         ; WASM_SECTION_MEMORY
0000001: 00                                         ; min mem size log 2
0000002: 00                                         ; max mem size log 2
0000003: 01                                         ; export mem
0000004: 03                                         ; WASM_SECTION_GLOBALS
0000005: 04                                         ; num globals
; global header 0
0000006: 0000 0000                                  ; global name offset
000000a: 04                                         ; global mem type
000000b: 00                                         ; export global
; global header 1
000000c: 0000 0000                                  ; global name offset
0000010: 06                                         ; global mem type
0000011: 00                                         ; export global
; global header 2
0000012: 0000 0000                                  ; global name offset
0000016: 08                                         ; global mem type
0000017: 00                                         ; export global
; global header 3
0000018: 0000 0000                                  ; global name offset
000001c: 09                                         ; global mem type
000001d: 00                                         ; export global
000001e: 06                                         ; WASM_SECTION_END
;;; STDOUT ;;)
