;;; FLAGS: -dv
(module
  (global i32 i64 f32 f64))
(;; STDOUT ;;;
0000000: 0061 736d                                  ; WASM_BINARY_MAGIC
0000004: 0a00 0000                                  ; WASM_BINARY_VERSION
0000008: 03                                         ; WASM_BINARY_SECTION_GLOBALS
0000009: 04                                         ; num globals
; global header 0
000000a: 0000 0000                                  ; global name offset
000000e: 04                                         ; global mem type
000000f: 00                                         ; export global
; global header 1
0000010: 0000 0000                                  ; global name offset
0000014: 06                                         ; global mem type
0000015: 00                                         ; export global
; global header 2
0000016: 0000 0000                                  ; global name offset
000001a: 08                                         ; global mem type
000001b: 00                                         ; export global
; global header 3
000001c: 0000 0000                                  ; global name offset
0000020: 09                                         ; global mem type
0000021: 00                                         ; export global
0000022: 06                                         ; WASM_BINARY_SECTION_END
;; dump
0000000: 0061 736d 0a00 0000 0304 0000 0000 0400  
0000010: 0000 0000 0600 0000 0000 0800 0000 0000  
0000020: 0900 06                                  
;;; STDOUT ;;)
