;;; FLAGS: -dv
(module
  (memory 1 2)
  (func (param i32)
    (grow_memory (get_local 0))))
(;; STDOUT ;;;
0000000: 0061 736d                                  ; WASM_BINARY_MAGIC
0000004: 0a00 0000                                  ; WASM_BINARY_VERSION
; section "memory"
0000008: 00                                         ; section size (guess)
0000009: 06                                         ; string length
000000a: 6d65 6d6f 7279                             ; section id: "memory"
0000010: 01                                         ; min mem pages
0000011: 02                                         ; max mem pages
0000012: 00                                         ; export mem
0000008: 0a                                         ; FIXUP section size
; section "signatures"
0000013: 00                                         ; section size (guess)
0000014: 0a                                         ; string length
0000015: 7369 676e 6174 7572 6573                   ; section id: "signatures"
000001f: 01                                         ; num signatures
; signature 0
0000020: 01                                         ; num params
0000021: 00                                         ; result_type
0000022: 01                                         ; param type
0000013: 0f                                         ; FIXUP section size
; section "function_signatures"
0000023: 00                                         ; section size (guess)
0000024: 13                                         ; string length
0000025: 6675 6e63 7469 6f6e 5f73 6967 6e61 7475  
0000035: 7265 73                                    ; section id: "function_signatures"
0000038: 01                                         ; num functions
0000039: 00                                         ; function 0 signature index
0000023: 16                                         ; FIXUP section size
; section "function_bodies"
000003a: 00                                         ; section size (guess)
000003b: 0f                                         ; string length
000003c: 6675 6e63 7469 6f6e 5f62 6f64 6965 73      ; section id: "function_bodies"
000004b: 01                                         ; num functions
; function body 0
000004c: 00                                         ; func body size (guess)
000004d: 00                                         ; local decl count
000004e: 39                                         ; OPCODE_GROW_MEMORY
000004f: 0e                                         ; OPCODE_GET_LOCAL
0000050: 00                                         ; remapped local index
000004c: 04                                         ; FIXUP func body size
000003a: 16                                         ; FIXUP section size
; section "end"
0000051: 00                                         ; section size (guess)
0000052: 03                                         ; string length
0000053: 656e 64                                    ; section id: "end"
0000051: 04                                         ; FIXUP section size
;; dump
0000000: 0061 736d 0a00 0000 0a06 6d65 6d6f 7279  
0000010: 0102 000f 0a73 6967 6e61 7475 7265 7301  
0000020: 0100 0116 1366 756e 6374 696f 6e5f 7369  
0000030: 676e 6174 7572 6573 0100 160f 6675 6e63  
0000040: 7469 6f6e 5f62 6f64 6965 7301 0400 390e  
0000050: 0004 0365 6e64                           
;;; STDOUT ;;)
