;;; FLAGS: -dv
(module
  (memory 1 2)
  (func (param i32)
    (grow_memory (get_local 0))))
(;; STDOUT ;;;
0000000: 0061 736d                                  ; WASM_BINARY_MAGIC
0000004: 0a00 0000                                  ; WASM_BINARY_VERSION
0000008: 00                                         ; WASM_BINARY_SECTION_MEMORY
0000009: 01                                         ; min mem pages
000000a: 02                                         ; max mem pages
000000b: 01                                         ; export mem
000000c: 01                                         ; WASM_BINARY_SECTION_SIGNATURES
000000d: 01                                         ; num signatures
; signature 0
000000e: 01                                         ; num params
000000f: 00                                         ; result_type
0000010: 01                                         ; param type
0000011: 02                                         ; WASM_BINARY_SECTION_FUNCTIONS
0000012: 01                                         ; num functions
; function 0
0000013: 00                                         ; func flags
0000014: 0000                                       ; func signature index
0000016: 0000                                       ; func body size
0000018: 00                                         ; local decl count
0000018: 00                                         ; local decl count
0000019: 39                                         ; OPCODE_GROW_MEMORY
000001a: 0e                                         ; OPCODE_GET_LOCAL
000001b: 00                                         ; remapped local index
0000016: 0400                                       ; FIXUP func body size
000001c: 06                                         ; WASM_BINARY_SECTION_END
;; dump
0000000: 0061 736d 0a00 0000 0001 0201 0101 0100  
0000010: 0102 0100 0000 0400 0039 0e00 06         
;;; STDOUT ;;)
