;;; FLAGS: -dv
(module
  (memory 1 2)
  (func (param i32)
    (grow_memory (get_local 0))))
(;; STDOUT ;;;
0000000: 0061 736d                                  ; WASM_BINARY_MAGIC
0000004: 0b00 0000                                  ; WASM_BINARY_VERSION
; section "type"
0000008: 04                                         ; string length
0000009: 7479 7065                                  ; section id: "type"
000000d: 00                                         ; section size (guess)
000000e: 01                                         ; num types
; type 0
000000f: 40                                         ; function form
0000010: 01                                         ; num params
0000011: 01                                         ; param type
0000012: 00                                         ; num results
000000d: 05                                         ; FIXUP section size
; section "function"
0000013: 08                                         ; string length
0000014: 6675 6e63 7469 6f6e                        ; section id: "function"
000001c: 00                                         ; section size (guess)
000001d: 01                                         ; num functions
000001e: 00                                         ; function 0 signature index
000001c: 02                                         ; FIXUP section size
; section "memory"
000001f: 06                                         ; string length
0000020: 6d65 6d6f 7279                             ; section id: "memory"
0000026: 00                                         ; section size (guess)
0000027: 01                                         ; min mem pages
0000028: 02                                         ; max mem pages
0000029: 00                                         ; export mem
0000026: 03                                         ; FIXUP section size
; section "code"
000002a: 04                                         ; string length
000002b: 636f 6465                                  ; section id: "code"
000002f: 00                                         ; section size (guess)
0000030: 01                                         ; num functions
; function body 0
0000031: 00                                         ; func body size (guess)
0000032: 00                                         ; local decl count
0000033: 14                                         ; OPCODE_GET_LOCAL
0000034: 00                                         ; local index
0000035: 39                                         ; OPCODE_GROW_MEMORY
0000031: 04                                         ; FIXUP func body size
000002f: 06                                         ; FIXUP section size
;; dump
0000000: 0061 736d 0b00 0000 0474 7970 6505 0140  
0000010: 0101 0008 6675 6e63 7469 6f6e 0201 0006  
0000020: 6d65 6d6f 7279 0301 0200 0463 6f64 6506  
0000030: 0104 0014 0039                           
;;; STDOUT ;;)
