;;; FLAGS: -dv
(module
  (memory 1 2)
  (func (param i32)
    get_local 0
    grow_memory
    drop))
(;; STDOUT ;;;
0000000: 0061 736d                                 ; WASM_BINARY_MAGIC
0000004: 0c00 0000                                 ; WASM_BINARY_VERSION
; section "TYPE" (1)
0000008: 01                                        ; section code
0000009: 00                                        ; section size (guess)
000000a: 01                                        ; num types
; type 0
000000b: 40                                        ; function form
000000c: 01                                        ; num params
000000d: 01                                        ; param type
000000e: 00                                        ; num results
0000009: 05                                        ; FIXUP section size
; section "FUNCTION" (3)
000000f: 03                                        ; section code
0000010: 00                                        ; section size (guess)
0000011: 01                                        ; num functions
0000012: 00                                        ; function 0 signature index
0000010: 02                                        ; FIXUP section size
; section "MEMORY" (5)
0000013: 05                                        ; section code
0000014: 00                                        ; section size (guess)
0000015: 01                                        ; num memories
; memory 0
0000016: 01                                        ; memory flags
0000017: 01                                        ; memory initial pages
0000018: 02                                        ; memory max pages
0000014: 04                                        ; FIXUP section size
; section "CODE" (10)
0000019: 0a                                        ; section code
000001a: 00                                        ; section size (guess)
000001b: 01                                        ; num functions
; function body 0
000001c: 00                                        ; func body size (guess)
000001d: 00                                        ; local decl count
000001e: 14                                        ; get_local
000001f: 00                                        ; local index
0000020: 39                                        ; grow_memory
0000021: 0b                                        ; drop
0000022: 0f                                        ; end
000001c: 06                                        ; FIXUP func body size
000001a: 08                                        ; FIXUP section size
;; dump
0000000: 0061 736d 0c00 0000 0105 0140 0101 0003 
0000010: 0201 0005 0401 0101 020a 0801 0600 1400 
0000020: 390b 0f                                 
;;; STDOUT ;;)
