;;; FLAGS: -dv
(module
  (memory 1 2)
  (func (param i32)
    (grow_memory (get_local 0))))
(;; STDOUT ;;;
0000000: 0061 736d                                  ; WASM_BINARY_MAGIC
0000004: 0a00 0000                                  ; WASM_BINARY_VERSION
; section "signatures"
0000008: 00                                         ; section size (guess)
0000009: 0a                                         ; string length
000000a: 7369 676e 6174 7572 6573                   ; section id: "signatures"
0000014: 01                                         ; num signatures
; signature 0
0000015: 01                                         ; num params
0000016: 00                                         ; result_type
0000017: 01                                         ; param type
0000008: 0f                                         ; FIXUP section size
; section "function_signatures"
0000018: 00                                         ; section size (guess)
0000019: 13                                         ; string length
000001a: 6675 6e63 7469 6f6e 5f73 6967 6e61 7475  
000002a: 7265 73                                    ; section id: "function_signatures"
000002d: 01                                         ; num functions
000002e: 00                                         ; function 0 signature index
0000018: 16                                         ; FIXUP section size
; section "memory"
000002f: 00                                         ; section size (guess)
0000030: 06                                         ; string length
0000031: 6d65 6d6f 7279                             ; section id: "memory"
0000037: 01                                         ; min mem pages
0000038: 02                                         ; max mem pages
0000039: 00                                         ; export mem
000002f: 0a                                         ; FIXUP section size
; section "function_bodies"
000003a: 00                                         ; section size (guess)
000003b: 0f                                         ; string length
000003c: 6675 6e63 7469 6f6e 5f62 6f64 6965 73      ; section id: "function_bodies"
000004b: 01                                         ; num functions
; function body 0
000004c: 00                                         ; func body size (guess)
000004d: 00                                         ; local decl count
000004e: 39                                         ; OPCODE_GROW_MEMORY
000004f: 0e                                         ; OPCODE_GET_LOCAL
0000050: 00                                         ; remapped local index
000004c: 04                                         ; FIXUP func body size
000003a: 16                                         ; FIXUP section size
;; dump
0000000: 0061 736d 0a00 0000 0f0a 7369 676e 6174  
0000010: 7572 6573 0101 0001 1613 6675 6e63 7469  
0000020: 6f6e 5f73 6967 6e61 7475 7265 7301 000a  
0000030: 066d 656d 6f72 7901 0200 160f 6675 6e63  
0000040: 7469 6f6e 5f62 6f64 6965 7301 0400 390e  
0000050: 00                                       
;;; STDOUT ;;)
