;;; FLAGS: -dv
(module
  (func
    (f32.const 0x0p0)
    (f32.const 0x1234.5p6)
    (f32.const 0xffffffffp20)
    (f32.const 0x1p127)
    (f32.const 0x0.08p127)
    (f32.const 0x2.46p+123)
    (f32.const 0x0.fffffp127)
    (f32.const 0x0.7fffffp127)
    (f32.const 0x0.ffffffffp128)
    (f32.const 0x1.ffff88p127)
    (f32.const 0x1.fffff1p127)
    (f32.const 0xfffff98p-133)
    (f32.const 0xfffff88p-133)
    (f32.const 0xfffffffffp-155)
    (f32.const 0x000000001.10000000000p0)
    (f32.const 0x1000000000.p4)
    (f32.const -0x1.ff01p1)
  )
)
(;; STDOUT ;;;
0000000: 0061 736d                                  ; WASM_BINARY_MAGIC
0000004: 0a00 0000                                  ; WASM_BINARY_VERSION
; section "signatures"
0000008: 00                                         ; section size (guess)
0000009: 0a                                         ; string length
000000a: 7369 676e 6174 7572 6573                   ; section id: "signatures"
0000014: 01                                         ; num signatures
; signature 0
0000015: 00                                         ; num params
0000016: 00                                         ; result_type
0000008: 0e                                         ; FIXUP section size
; section "function_signatures"
0000017: 00                                         ; section size (guess)
0000018: 13                                         ; string length
0000019: 6675 6e63 7469 6f6e 5f73 6967 6e61 7475  
0000029: 7265 73                                    ; section id: "function_signatures"
000002c: 01                                         ; num functions
000002d: 00                                         ; function 0 signature index
0000017: 16                                         ; FIXUP section size
; section "function_bodies"
000002e: 00                                         ; section size (guess)
000002f: 0f                                         ; string length
0000030: 6675 6e63 7469 6f6e 5f62 6f64 6965 73      ; section id: "function_bodies"
000003f: 01                                         ; num functions
; function body 0
0000040: 00                                         ; func body size (guess)
0000041: 00                                         ; local decl count
0000042: 0d                                         ; OPCODE_F32_CONST
0000043: 0000 0000                                  ; f32 literal
0000047: 0d                                         ; OPCODE_F32_CONST
0000048: 80a2 9148                                  ; f32 literal
000004c: 0d                                         ; OPCODE_F32_CONST
000004d: 0000 8059                                  ; f32 literal
0000051: 0d                                         ; OPCODE_F32_CONST
0000052: 0000 007f                                  ; f32 literal
0000056: 0d                                         ; OPCODE_F32_CONST
0000057: 0000 807c                                  ; f32 literal
000005b: 0d                                         ; OPCODE_F32_CONST
000005c: 0080 917d                                  ; f32 literal
0000060: 0d                                         ; OPCODE_F32_CONST
0000061: f0ff ff7e                                  ; f32 literal
0000065: 0d                                         ; OPCODE_F32_CONST
0000066: feff 7f7e                                  ; f32 literal
000006a: 0d                                         ; OPCODE_F32_CONST
000006b: 0000 807f                                  ; f32 literal
000006f: 0d                                         ; OPCODE_F32_CONST
0000070: c4ff 7f7f                                  ; f32 literal
0000074: 0d                                         ; OPCODE_F32_CONST
0000075: f8ff 7f7f                                  ; f32 literal
0000079: 0d                                         ; OPCODE_F32_CONST
000007a: faff ff0a                                  ; f32 literal
000007e: 0d                                         ; OPCODE_F32_CONST
000007f: f8ff ff0a                                  ; f32 literal
0000083: 0d                                         ; OPCODE_F32_CONST
0000084: 0000 0004                                  ; f32 literal
0000088: 0d                                         ; OPCODE_F32_CONST
0000089: 0000 883f                                  ; f32 literal
000008d: 0d                                         ; OPCODE_F32_CONST
000008e: 0000 8053                                  ; f32 literal
0000092: 0d                                         ; OPCODE_F32_CONST
0000093: 8080 7fc0                                  ; f32 literal
0000040: 56                                         ; FIXUP func body size
000002e: 68                                         ; FIXUP section size
;; dump
0000000: 0061 736d 0a00 0000 0e0a 7369 676e 6174  
0000010: 7572 6573 0100 0016 1366 756e 6374 696f  
0000020: 6e5f 7369 676e 6174 7572 6573 0100 680f  
0000030: 6675 6e63 7469 6f6e 5f62 6f64 6965 7301  
0000040: 5600 0d00 0000 000d 80a2 9148 0d00 0080  
0000050: 590d 0000 007f 0d00 0080 7c0d 0080 917d  
0000060: 0df0 ffff 7e0d feff 7f7e 0d00 0080 7f0d  
0000070: c4ff 7f7f 0df8 ff7f 7f0d faff ff0a 0df8  
0000080: ffff 0a0d 0000 0004 0d00 0088 3f0d 0000  
0000090: 8053 0d80 807f c0                        
;;; STDOUT ;;)
