;;; FLAGS: -dv
(module
  (func
    (f64.const 0x0p0)
    (f64.const 0x1234.5p6)
    (f64.const 0xffffffffffffffffp20)
    (f64.const 0x1p1023)
    (f64.const 0x0.08p1023)
    (f64.const 0x2.46p+1020)
    (f64.const 0x0.ffffffffffp1023)
    (f64.const 0x0.7fffffffffffp1023)
    (f64.const 0x0.ffffffffffffffffp1024)
    (f64.const 0x1.ffffffffffffcp1023)
    (f64.const 0x1.ffffffffffffep1023)
    (f64.const 0xffffffffffff88p-1033)
    (f64.const 0xffffffffffff98p-1033)
    (f64.const 0xffffffffffffffp-1055)
    (f64.const 0x000000001.10000000000p0)
    (f64.const 0x1000000000.p4)
    (f64.const -0x1.ff01p1)
  )
)
(;; STDOUT ;;;
0000000: 0061 736d                                  ; WASM_BINARY_MAGIC
0000004: 0a00 0000                                  ; WASM_BINARY_VERSION
; section "signatures"
0000008: 00                                         ; section size (guess)
0000009: 0a                                         ; string length
000000a: 7369 676e 6174 7572 6573                   ; section id: "signatures"
0000014: 01                                         ; num signatures
; signature 0
0000015: 00                                         ; num params
0000016: 00                                         ; result_type
0000008: 0e                                         ; FIXUP section size
; section "function_signatures"
0000017: 00                                         ; section size (guess)
0000018: 13                                         ; string length
0000019: 6675 6e63 7469 6f6e 5f73 6967 6e61 7475  
0000029: 7265 73                                    ; section id: "function_signatures"
000002c: 01                                         ; num functions
000002d: 00                                         ; function 0 signature index
0000017: 16                                         ; FIXUP section size
; section "function_bodies"
000002e: 00                                         ; section size (guess)
000002f: 0f                                         ; string length
0000030: 6675 6e63 7469 6f6e 5f62 6f64 6965 73      ; section id: "function_bodies"
000003f: 01                                         ; num functions
; function body 0
0000040: 00                                         ; func body size (guess)
0000041: 00                                         ; local decl count
0000042: 0c                                         ; OPCODE_F64_CONST
0000043: 0000 0000 0000 0000                        ; f64 literal
000004b: 0c                                         ; OPCODE_F64_CONST
000004c: 0000 0000 5034 1241                        ; f64 literal
0000054: 0c                                         ; OPCODE_F64_CONST
0000055: 0000 0000 0000 3045                        ; f64 literal
000005d: 0c                                         ; OPCODE_F64_CONST
000005e: 0000 0000 0000 e07f                        ; f64 literal
0000066: 0c                                         ; OPCODE_F64_CONST
0000067: 0000 0000 0000 907f                        ; f64 literal
000006f: 0c                                         ; OPCODE_F64_CONST
0000070: 0000 0000 0030 c27f                        ; f64 literal
0000078: 0c                                         ; OPCODE_F64_CONST
0000079: 00e0 ffff ffff df7f                        ; f64 literal
0000081: 0c                                         ; OPCODE_F64_CONST
0000082: c0ff ffff ffff cf7f                        ; f64 literal
000008a: 0c                                         ; OPCODE_F64_CONST
000008b: 0000 0000 0000 f07f                        ; f64 literal
0000093: 0c                                         ; OPCODE_F64_CONST
0000094: fcff ffff ffff ef7f                        ; f64 literal
000009c: 0c                                         ; OPCODE_F64_CONST
000009d: feff ffff ffff ef7f                        ; f64 literal
00000a5: 0c                                         ; OPCODE_F64_CONST
00000a6: f1ff ffff ffff df02                        ; f64 literal
00000ae: 0c                                         ; OPCODE_F64_CONST
00000af: f3ff ffff ffff df02                        ; f64 literal
00000b7: 0c                                         ; OPCODE_F64_CONST
00000b8: 0000 0000 0000 8001                        ; f64 literal
00000c0: 0c                                         ; OPCODE_F64_CONST
00000c1: 0000 0000 0000 f13f                        ; f64 literal
00000c9: 0c                                         ; OPCODE_F64_CONST
00000ca: 0000 0000 0000 7042                        ; f64 literal
00000d2: 0c                                         ; OPCODE_F64_CONST
00000d3: 0000 0000 10f0 0fc0                        ; f64 literal
; move data: [41, db) -> [42, dc)
0000040: 9a01                                       ; FIXUP func body size
; move data: [2f, dc) -> [30, dd)
000002e: ad01                                       ; FIXUP section size
;; dump
0000000: 0061 736d 0a00 0000 0e0a 7369 676e 6174  
0000010: 7572 6573 0100 0016 1366 756e 6374 696f  
0000020: 6e5f 7369 676e 6174 7572 6573 0100 ad01  
0000030: 0f66 756e 6374 696f 6e5f 626f 6469 6573  
0000040: 019a 0100 0c00 0000 0000 0000 000c 0000  
0000050: 0000 5034 1241 0c00 0000 0000 0030 450c  
0000060: 0000 0000 0000 e07f 0c00 0000 0000 0090  
0000070: 7f0c 0000 0000 0030 c27f 0c00 e0ff ffff  
0000080: ffdf 7f0c c0ff ffff ffff cf7f 0c00 0000  
0000090: 0000 00f0 7f0c fcff ffff ffff ef7f 0cfe  
00000a0: ffff ffff ffef 7f0c f1ff ffff ffff df02  
00000b0: 0cf3 ffff ffff ffdf 020c 0000 0000 0000  
00000c0: 8001 0c00 0000 0000 00f1 3f0c 0000 0000  
00000d0: 0000 7042 0c00 0000 0010 f00f c0         
;;; STDOUT ;;)
