;;; FLAGS: -dv
(module
  (func
    (f32.const 0x0p0)
    (f32.const 0x1234.5p6)
    (f32.const 0xffffffffp20)
    (f32.const 0x1p127)
    (f32.const 0x0.08p127)
    (f32.const 0x2.46p+123)
    (f32.const 0x0.fffffp127)
    (f32.const 0x0.7fffffp127)
    (f32.const 0x0.ffffffffp128)
    (f32.const 0x1.ffff88p127)
    (f32.const 0x1.fffff1p127)
    (f32.const 0xfffff98p-133)
    (f32.const 0xfffff88p-133)
    (f32.const 0xfffffffffp-155)
    (f32.const 0x000000001.10000000000p0)
    (f32.const 0x1000000000.p4)
    (f32.const -0x1.ff01p1)
  )
)
(;; STDOUT ;;;
0000000: 0061 736d                                  ; WASM_BINARY_MAGIC
0000004: 0b00 0000                                  ; WASM_BINARY_VERSION
; section "type"
0000008: 04                                         ; string length
0000009: 7479 7065                                  ; section id: "type"
000000d: 00                                         ; section size (guess)
000000e: 01                                         ; num types
; type 0
000000f: 40                                         ; function form
0000010: 00                                         ; num params
0000011: 00                                         ; num results
000000d: 04                                         ; FIXUP section size
; section "function"
0000012: 08                                         ; string length
0000013: 6675 6e63 7469 6f6e                        ; section id: "function"
000001b: 00                                         ; section size (guess)
000001c: 01                                         ; num functions
000001d: 00                                         ; function 0 signature index
000001b: 02                                         ; FIXUP section size
; section "code"
000001e: 04                                         ; string length
000001f: 636f 6465                                  ; section id: "code"
0000023: 00                                         ; section size (guess)
0000024: 01                                         ; num functions
; function body 0
0000025: 00                                         ; func body size (guess)
0000026: 00                                         ; local decl count
0000027: 13                                         ; OPCODE_F32_CONST
0000028: 0000 0000                                  ; f32 literal
000002c: 13                                         ; OPCODE_F32_CONST
000002d: 80a2 9148                                  ; f32 literal
0000031: 13                                         ; OPCODE_F32_CONST
0000032: 0000 8059                                  ; f32 literal
0000036: 13                                         ; OPCODE_F32_CONST
0000037: 0000 007f                                  ; f32 literal
000003b: 13                                         ; OPCODE_F32_CONST
000003c: 0000 807c                                  ; f32 literal
0000040: 13                                         ; OPCODE_F32_CONST
0000041: 0080 917d                                  ; f32 literal
0000045: 13                                         ; OPCODE_F32_CONST
0000046: f0ff ff7e                                  ; f32 literal
000004a: 13                                         ; OPCODE_F32_CONST
000004b: feff 7f7e                                  ; f32 literal
000004f: 13                                         ; OPCODE_F32_CONST
0000050: 0000 807f                                  ; f32 literal
0000054: 13                                         ; OPCODE_F32_CONST
0000055: c4ff 7f7f                                  ; f32 literal
0000059: 13                                         ; OPCODE_F32_CONST
000005a: f8ff 7f7f                                  ; f32 literal
000005e: 13                                         ; OPCODE_F32_CONST
000005f: faff ff0a                                  ; f32 literal
0000063: 13                                         ; OPCODE_F32_CONST
0000064: f8ff ff0a                                  ; f32 literal
0000068: 13                                         ; OPCODE_F32_CONST
0000069: 0000 0004                                  ; f32 literal
000006d: 13                                         ; OPCODE_F32_CONST
000006e: 0000 883f                                  ; f32 literal
0000072: 13                                         ; OPCODE_F32_CONST
0000073: 0000 8053                                  ; f32 literal
0000077: 13                                         ; OPCODE_F32_CONST
0000078: 8080 7fc0                                  ; f32 literal
0000025: 56                                         ; FIXUP func body size
0000023: 58                                         ; FIXUP section size
;; dump
0000000: 0061 736d 0b00 0000 0474 7970 6504 0140  
0000010: 0000 0866 756e 6374 696f 6e02 0100 0463  
0000020: 6f64 6558 0156 0013 0000 0000 1380 a291  
0000030: 4813 0000 8059 1300 0000 7f13 0000 807c  
0000040: 1300 8091 7d13 f0ff ff7e 13fe ff7f 7e13  
0000050: 0000 807f 13c4 ff7f 7f13 f8ff 7f7f 13fa  
0000060: ffff 0a13 f8ff ff0a 1300 0000 0413 0000  
0000070: 883f 1300 0080 5313 8080 7fc0            
;;; STDOUT ;;)
