;;; FLAGS: -dv
(module
  (func
    (drop (f32.const 0x0p0))
    (drop (f32.const 0x1234.5p6))
    (drop (f32.const 0xffffffffp20))
    (drop (f32.const 0x1p127))
    (drop (f32.const 0x0.08p127))
    (drop (f32.const 0x2.46p+123))
    (drop (f32.const 0x0.fffffp127))
    (drop (f32.const 0x0.7fffffp127))
    (drop (f32.const 0x0.ffffffffp128))
    (drop (f32.const 0x1.ffff88p127))
    (drop (f32.const 0x1.fffff1p127))
    (drop (f32.const 0xfffff98p-133))
    (drop (f32.const 0xfffff88p-133))
    (drop (f32.const 0xfffffffffp-155))
    (drop (f32.const 0x000000001.10000000000p0))
    (drop (f32.const 0x1000000000.p4))
    (drop (f32.const -0x1.ff01p1))
  )
)
(;; STDOUT ;;;
0000000: 0061 736d                                  ; WASM_BINARY_MAGIC
0000004: 0c00 0000                                  ; WASM_BINARY_VERSION
; section "type"
0000008: 04                                         ; string length
0000009: 7479 7065                                  ; section id: "type"
000000d: 00                                         ; section size (guess)
000000e: 01                                         ; num types
; type 0
000000f: 40                                         ; function form
0000010: 00                                         ; num params
0000011: 00                                         ; num results
000000d: 04                                         ; FIXUP section size
; section "function"
0000012: 08                                         ; string length
0000013: 6675 6e63 7469 6f6e                        ; section id: "function"
000001b: 00                                         ; section size (guess)
000001c: 01                                         ; num functions
000001d: 00                                         ; function 0 signature index
000001b: 02                                         ; FIXUP section size
; section "code"
000001e: 04                                         ; string length
000001f: 636f 6465                                  ; section id: "code"
0000023: 00                                         ; section size (guess)
0000024: 01                                         ; num functions
; function body 0
0000025: 00                                         ; func body size (guess)
0000026: 00                                         ; local decl count
0000027: 13                                         ; OPCODE_F32_CONST
0000028: 0000 0000                                  ; f32 literal
000002c: 0b                                         ; OPCODE_DROP
000002d: 13                                         ; OPCODE_F32_CONST
000002e: 80a2 9148                                  ; f32 literal
0000032: 0b                                         ; OPCODE_DROP
0000033: 13                                         ; OPCODE_F32_CONST
0000034: 0000 8059                                  ; f32 literal
0000038: 0b                                         ; OPCODE_DROP
0000039: 13                                         ; OPCODE_F32_CONST
000003a: 0000 007f                                  ; f32 literal
000003e: 0b                                         ; OPCODE_DROP
000003f: 13                                         ; OPCODE_F32_CONST
0000040: 0000 807c                                  ; f32 literal
0000044: 0b                                         ; OPCODE_DROP
0000045: 13                                         ; OPCODE_F32_CONST
0000046: 0080 917d                                  ; f32 literal
000004a: 0b                                         ; OPCODE_DROP
000004b: 13                                         ; OPCODE_F32_CONST
000004c: f0ff ff7e                                  ; f32 literal
0000050: 0b                                         ; OPCODE_DROP
0000051: 13                                         ; OPCODE_F32_CONST
0000052: feff 7f7e                                  ; f32 literal
0000056: 0b                                         ; OPCODE_DROP
0000057: 13                                         ; OPCODE_F32_CONST
0000058: 0000 807f                                  ; f32 literal
000005c: 0b                                         ; OPCODE_DROP
000005d: 13                                         ; OPCODE_F32_CONST
000005e: c4ff 7f7f                                  ; f32 literal
0000062: 0b                                         ; OPCODE_DROP
0000063: 13                                         ; OPCODE_F32_CONST
0000064: f8ff 7f7f                                  ; f32 literal
0000068: 0b                                         ; OPCODE_DROP
0000069: 13                                         ; OPCODE_F32_CONST
000006a: faff ff0a                                  ; f32 literal
000006e: 0b                                         ; OPCODE_DROP
000006f: 13                                         ; OPCODE_F32_CONST
0000070: f8ff ff0a                                  ; f32 literal
0000074: 0b                                         ; OPCODE_DROP
0000075: 13                                         ; OPCODE_F32_CONST
0000076: 0000 0004                                  ; f32 literal
000007a: 0b                                         ; OPCODE_DROP
000007b: 13                                         ; OPCODE_F32_CONST
000007c: 0000 883f                                  ; f32 literal
0000080: 0b                                         ; OPCODE_DROP
0000081: 13                                         ; OPCODE_F32_CONST
0000082: 0000 8053                                  ; f32 literal
0000086: 0b                                         ; OPCODE_DROP
0000087: 13                                         ; OPCODE_F32_CONST
0000088: 8080 7fc0                                  ; f32 literal
000008c: 0b                                         ; OPCODE_DROP
0000025: 67                                         ; FIXUP func body size
0000023: 69                                         ; FIXUP section size
;; dump
0000000: 0061 736d 0c00 0000 0474 7970 6504 0140  
0000010: 0000 0866 756e 6374 696f 6e02 0100 0463  
0000020: 6f64 6569 0167 0013 0000 0000 0b13 80a2  
0000030: 9148 0b13 0000 8059 0b13 0000 007f 0b13  
0000040: 0000 807c 0b13 0080 917d 0b13 f0ff ff7e  
0000050: 0b13 feff 7f7e 0b13 0000 807f 0b13 c4ff  
0000060: 7f7f 0b13 f8ff 7f7f 0b13 faff ff0a 0b13  
0000070: f8ff ff0a 0b13 0000 0004 0b13 0000 883f  
0000080: 0b13 0000 8053 0b13 8080 7fc0 0b         
;;; STDOUT ;;)
