;;; FLAGS: -dv
(module
  (func
    (f64.const 0x0p0)
    (f64.const 0x1234.5p6)
    (f64.const 0xffffffffffffffffp20)
    (f64.const 0x1p1023)
    (f64.const 0x0.08p1023)
    (f64.const 0x2.46p+1020)
    (f64.const 0x0.ffffffffffp1023)
    (f64.const 0x0.7fffffffffffp1023)
    (f64.const 0x0.ffffffffffffffffp1024)
    (f64.const 0x1.ffffffffffffcp1023)
    (f64.const 0x1.ffffffffffffep1023)
    (f64.const 0xffffffffffff88p-1033)
    (f64.const 0xffffffffffff98p-1033)
    (f64.const 0xffffffffffffffp-1055)
    (f64.const 0x000000001.10000000000p0)
    (f64.const 0x1000000000.p4)
    (f64.const -0x1.ff01p1)
  )
)
(;; STDOUT ;;;
0000000: 0061 736d                                  ; WASM_BINARY_MAGIC
0000004: 0b00 0000                                  ; WASM_BINARY_VERSION
; section "type"
0000008: 04                                         ; string length
0000009: 7479 7065                                  ; section id: "type"
000000d: 00                                         ; section size (guess)
000000e: 01                                         ; num types
; type 0
000000f: 40                                         ; function form
0000010: 00                                         ; num params
0000011: 00                                         ; num results
000000d: 04                                         ; FIXUP section size
; section "function"
0000012: 08                                         ; string length
0000013: 6675 6e63 7469 6f6e                        ; section id: "function"
000001b: 00                                         ; section size (guess)
000001c: 01                                         ; num functions
000001d: 00                                         ; function 0 signature index
000001b: 02                                         ; FIXUP section size
; section "code"
000001e: 04                                         ; string length
000001f: 636f 6465                                  ; section id: "code"
0000023: 00                                         ; section size (guess)
0000024: 01                                         ; num functions
; function body 0
0000025: 00                                         ; func body size (guess)
0000026: 00                                         ; local decl count
0000027: 12                                         ; OPCODE_F64_CONST
0000028: 0000 0000 0000 0000                        ; f64 literal
0000030: 12                                         ; OPCODE_F64_CONST
0000031: 0000 0000 5034 1241                        ; f64 literal
0000039: 12                                         ; OPCODE_F64_CONST
000003a: 0000 0000 0000 3045                        ; f64 literal
0000042: 12                                         ; OPCODE_F64_CONST
0000043: 0000 0000 0000 e07f                        ; f64 literal
000004b: 12                                         ; OPCODE_F64_CONST
000004c: 0000 0000 0000 907f                        ; f64 literal
0000054: 12                                         ; OPCODE_F64_CONST
0000055: 0000 0000 0030 c27f                        ; f64 literal
000005d: 12                                         ; OPCODE_F64_CONST
000005e: 00e0 ffff ffff df7f                        ; f64 literal
0000066: 12                                         ; OPCODE_F64_CONST
0000067: c0ff ffff ffff cf7f                        ; f64 literal
000006f: 12                                         ; OPCODE_F64_CONST
0000070: 0000 0000 0000 f07f                        ; f64 literal
0000078: 12                                         ; OPCODE_F64_CONST
0000079: fcff ffff ffff ef7f                        ; f64 literal
0000081: 12                                         ; OPCODE_F64_CONST
0000082: feff ffff ffff ef7f                        ; f64 literal
000008a: 12                                         ; OPCODE_F64_CONST
000008b: f1ff ffff ffff df02                        ; f64 literal
0000093: 12                                         ; OPCODE_F64_CONST
0000094: f3ff ffff ffff df02                        ; f64 literal
000009c: 12                                         ; OPCODE_F64_CONST
000009d: 0000 0000 0000 8001                        ; f64 literal
00000a5: 12                                         ; OPCODE_F64_CONST
00000a6: 0000 0000 0000 f13f                        ; f64 literal
00000ae: 12                                         ; OPCODE_F64_CONST
00000af: 0000 0000 0000 7042                        ; f64 literal
00000b7: 12                                         ; OPCODE_F64_CONST
00000b8: 0000 0000 10f0 0fc0                        ; f64 literal
; move data: [26, c0) -> [27, c1)
0000025: 9a01                                       ; FIXUP func body size
; move data: [24, c1) -> [25, c2)
0000023: 9d01                                       ; FIXUP section size
;; dump
0000000: 0061 736d 0b00 0000 0474 7970 6504 0140  
0000010: 0000 0866 756e 6374 696f 6e02 0100 0463  
0000020: 6f64 659d 0101 9a01 0012 0000 0000 0000  
0000030: 0000 1200 0000 0050 3412 4112 0000 0000  
0000040: 0000 3045 1200 0000 0000 00e0 7f12 0000  
0000050: 0000 0000 907f 1200 0000 0000 30c2 7f12  
0000060: 00e0 ffff ffff df7f 12c0 ffff ffff ffcf  
0000070: 7f12 0000 0000 0000 f07f 12fc ffff ffff  
0000080: ffef 7f12 feff ffff ffff ef7f 12f1 ffff  
0000090: ffff ffdf 0212 f3ff ffff ffff df02 1200  
00000a0: 0000 0000 0080 0112 0000 0000 0000 f13f  
00000b0: 1200 0000 0000 0070 4212 0000 0000 10f0  
00000c0: 0fc0                                     
;;; STDOUT ;;)
