;;; FLAGS: -dv
(module
  (func
    (drop (f64.const 0x0p0))
    (drop (f64.const 0x1234.5p6))
    (drop (f64.const 0xffffffffffffffffp20))
    (drop (f64.const 0x1p1023))
    (drop (f64.const 0x0.08p1023))
    (drop (f64.const 0x2.46p+1020))
    (drop (f64.const 0x0.ffffffffffp1023))
    (drop (f64.const 0x0.7fffffffffffp1023))
    (drop (f64.const 0x0.ffffffffffffffffp1024))
    (drop (f64.const 0x1.ffffffffffffcp1023))
    (drop (f64.const 0x1.ffffffffffffep1023))
    (drop (f64.const 0xffffffffffff88p-1033))
    (drop (f64.const 0xffffffffffff98p-1033))
    (drop (f64.const 0xffffffffffffffp-1055))
    (drop (f64.const 0x000000001.10000000000p0))
    (drop (f64.const 0x1000000000.p4))
    (drop (f64.const -0x1.ff01p1))
  )
)
(;; STDOUT ;;;
0000000: 0061 736d                                  ; WASM_BINARY_MAGIC
0000004: 0c00 0000                                  ; WASM_BINARY_VERSION
; section "type"
0000008: 04                                         ; string length
0000009: 7479 7065                                  ; section id: "type"
000000d: 00                                         ; section size (guess)
000000e: 01                                         ; num types
; type 0
000000f: 40                                         ; function form
0000010: 00                                         ; num params
0000011: 00                                         ; num results
000000d: 04                                         ; FIXUP section size
; section "function"
0000012: 08                                         ; string length
0000013: 6675 6e63 7469 6f6e                        ; section id: "function"
000001b: 00                                         ; section size (guess)
000001c: 01                                         ; num functions
000001d: 00                                         ; function 0 signature index
000001b: 02                                         ; FIXUP section size
; section "code"
000001e: 04                                         ; string length
000001f: 636f 6465                                  ; section id: "code"
0000023: 00                                         ; section size (guess)
0000024: 01                                         ; num functions
; function body 0
0000025: 00                                         ; func body size (guess)
0000026: 00                                         ; local decl count
0000027: 12                                         ; OPCODE_F64_CONST
0000028: 0000 0000 0000 0000                        ; f64 literal
0000030: 0b                                         ; OPCODE_DROP
0000031: 12                                         ; OPCODE_F64_CONST
0000032: 0000 0000 5034 1241                        ; f64 literal
000003a: 0b                                         ; OPCODE_DROP
000003b: 12                                         ; OPCODE_F64_CONST
000003c: 0000 0000 0000 3045                        ; f64 literal
0000044: 0b                                         ; OPCODE_DROP
0000045: 12                                         ; OPCODE_F64_CONST
0000046: 0000 0000 0000 e07f                        ; f64 literal
000004e: 0b                                         ; OPCODE_DROP
000004f: 12                                         ; OPCODE_F64_CONST
0000050: 0000 0000 0000 907f                        ; f64 literal
0000058: 0b                                         ; OPCODE_DROP
0000059: 12                                         ; OPCODE_F64_CONST
000005a: 0000 0000 0030 c27f                        ; f64 literal
0000062: 0b                                         ; OPCODE_DROP
0000063: 12                                         ; OPCODE_F64_CONST
0000064: 00e0 ffff ffff df7f                        ; f64 literal
000006c: 0b                                         ; OPCODE_DROP
000006d: 12                                         ; OPCODE_F64_CONST
000006e: c0ff ffff ffff cf7f                        ; f64 literal
0000076: 0b                                         ; OPCODE_DROP
0000077: 12                                         ; OPCODE_F64_CONST
0000078: 0000 0000 0000 f07f                        ; f64 literal
0000080: 0b                                         ; OPCODE_DROP
0000081: 12                                         ; OPCODE_F64_CONST
0000082: fcff ffff ffff ef7f                        ; f64 literal
000008a: 0b                                         ; OPCODE_DROP
000008b: 12                                         ; OPCODE_F64_CONST
000008c: feff ffff ffff ef7f                        ; f64 literal
0000094: 0b                                         ; OPCODE_DROP
0000095: 12                                         ; OPCODE_F64_CONST
0000096: f1ff ffff ffff df02                        ; f64 literal
000009e: 0b                                         ; OPCODE_DROP
000009f: 12                                         ; OPCODE_F64_CONST
00000a0: f3ff ffff ffff df02                        ; f64 literal
00000a8: 0b                                         ; OPCODE_DROP
00000a9: 12                                         ; OPCODE_F64_CONST
00000aa: 0000 0000 0000 8001                        ; f64 literal
00000b2: 0b                                         ; OPCODE_DROP
00000b3: 12                                         ; OPCODE_F64_CONST
00000b4: 0000 0000 0000 f13f                        ; f64 literal
00000bc: 0b                                         ; OPCODE_DROP
00000bd: 12                                         ; OPCODE_F64_CONST
00000be: 0000 0000 0000 7042                        ; f64 literal
00000c6: 0b                                         ; OPCODE_DROP
00000c7: 12                                         ; OPCODE_F64_CONST
00000c8: 0000 0000 10f0 0fc0                        ; f64 literal
00000d0: 0b                                         ; OPCODE_DROP
; move data: [26, d1) -> [27, d2)
0000025: ab01                                       ; FIXUP func body size
; move data: [24, d2) -> [25, d3)
0000023: ae01                                       ; FIXUP section size
;; dump
0000000: 0061 736d 0c00 0000 0474 7970 6504 0140  
0000010: 0000 0866 756e 6374 696f 6e02 0100 0463  
0000020: 6f64 65ae 0101 ab01 0012 0000 0000 0000  
0000030: 0000 0b12 0000 0000 5034 1241 0b12 0000  
0000040: 0000 0000 3045 0b12 0000 0000 0000 e07f  
0000050: 0b12 0000 0000 0000 907f 0b12 0000 0000  
0000060: 0030 c27f 0b12 00e0 ffff ffff df7f 0b12  
0000070: c0ff ffff ffff cf7f 0b12 0000 0000 0000  
0000080: f07f 0b12 fcff ffff ffff ef7f 0b12 feff  
0000090: ffff ffff ef7f 0b12 f1ff ffff ffff df02  
00000a0: 0b12 f3ff ffff ffff df02 0b12 0000 0000  
00000b0: 0000 8001 0b12 0000 0000 0000 f13f 0b12  
00000c0: 0000 0000 0000 7042 0b12 0000 0000 10f0  
00000d0: 0fc0 0b                                  
;;; STDOUT ;;)
