;;; FLAGS: -dv
(module
  (func
    (drop (f64.const 0x0p0))
    (drop (f64.const 0x1234.5p6))
    (drop (f64.const 0xffffffffffffffffp20))
    (drop (f64.const 0x1p1023))
    (drop (f64.const 0x0.08p1023))
    (drop (f64.const 0x2.46p+1020))
    (drop (f64.const 0x0.ffffffffffp1023))
    (drop (f64.const 0x0.7fffffffffffp1023))
    (drop (f64.const 0x0.ffffffffffffffffp1024))
    (drop (f64.const 0x1.ffffffffffffcp1023))
    (drop (f64.const 0x1.ffffffffffffep1023))
    (drop (f64.const 0xffffffffffff88p-1033))
    (drop (f64.const 0xffffffffffff98p-1033))
    (drop (f64.const 0xffffffffffffffp-1055))
    (drop (f64.const 0x000000001.10000000000p0))
    (drop (f64.const 0x1000000000.p4))
    (drop (f64.const -0x1.ff01p1))
  )
)
(;; STDOUT ;;;
0000000: 0061 736d                                  ; WASM_BINARY_MAGIC
0000004: 0c00 0000                                  ; WASM_BINARY_VERSION
; section "TYPE" (1)
0000008: 01                                         ; section code
0000009: 00                                         ; section size (guess)
000000a: 01                                         ; num types
; type 0
000000b: 40                                         ; function form
000000c: 00                                         ; num params
000000d: 00                                         ; num results
0000009: 04                                         ; FIXUP section size
; section "FUNCTION" (3)
000000e: 03                                         ; section code
000000f: 00                                         ; section size (guess)
0000010: 01                                         ; num functions
0000011: 00                                         ; function 0 signature index
000000f: 02                                         ; FIXUP section size
; section "CODE" (10)
0000012: 0a                                         ; section code
0000013: 00                                         ; section size (guess)
0000014: 01                                         ; num functions
; function body 0
0000015: 00                                         ; func body size (guess)
0000016: 00                                         ; local decl count
0000017: 12                                         ; OPCODE_F64_CONST
0000018: 0000 0000 0000 0000                        ; f64 literal
0000020: 0b                                         ; OPCODE_DROP
0000021: 12                                         ; OPCODE_F64_CONST
0000022: 0000 0000 5034 1241                        ; f64 literal
000002a: 0b                                         ; OPCODE_DROP
000002b: 12                                         ; OPCODE_F64_CONST
000002c: 0000 0000 0000 3045                        ; f64 literal
0000034: 0b                                         ; OPCODE_DROP
0000035: 12                                         ; OPCODE_F64_CONST
0000036: 0000 0000 0000 e07f                        ; f64 literal
000003e: 0b                                         ; OPCODE_DROP
000003f: 12                                         ; OPCODE_F64_CONST
0000040: 0000 0000 0000 907f                        ; f64 literal
0000048: 0b                                         ; OPCODE_DROP
0000049: 12                                         ; OPCODE_F64_CONST
000004a: 0000 0000 0030 c27f                        ; f64 literal
0000052: 0b                                         ; OPCODE_DROP
0000053: 12                                         ; OPCODE_F64_CONST
0000054: 00e0 ffff ffff df7f                        ; f64 literal
000005c: 0b                                         ; OPCODE_DROP
000005d: 12                                         ; OPCODE_F64_CONST
000005e: c0ff ffff ffff cf7f                        ; f64 literal
0000066: 0b                                         ; OPCODE_DROP
0000067: 12                                         ; OPCODE_F64_CONST
0000068: 0000 0000 0000 f07f                        ; f64 literal
0000070: 0b                                         ; OPCODE_DROP
0000071: 12                                         ; OPCODE_F64_CONST
0000072: fcff ffff ffff ef7f                        ; f64 literal
000007a: 0b                                         ; OPCODE_DROP
000007b: 12                                         ; OPCODE_F64_CONST
000007c: feff ffff ffff ef7f                        ; f64 literal
0000084: 0b                                         ; OPCODE_DROP
0000085: 12                                         ; OPCODE_F64_CONST
0000086: f1ff ffff ffff df02                        ; f64 literal
000008e: 0b                                         ; OPCODE_DROP
000008f: 12                                         ; OPCODE_F64_CONST
0000090: f3ff ffff ffff df02                        ; f64 literal
0000098: 0b                                         ; OPCODE_DROP
0000099: 12                                         ; OPCODE_F64_CONST
000009a: 0000 0000 0000 8001                        ; f64 literal
00000a2: 0b                                         ; OPCODE_DROP
00000a3: 12                                         ; OPCODE_F64_CONST
00000a4: 0000 0000 0000 f13f                        ; f64 literal
00000ac: 0b                                         ; OPCODE_DROP
00000ad: 12                                         ; OPCODE_F64_CONST
00000ae: 0000 0000 0000 7042                        ; f64 literal
00000b6: 0b                                         ; OPCODE_DROP
00000b7: 12                                         ; OPCODE_F64_CONST
00000b8: 0000 0000 10f0 0fc0                        ; f64 literal
00000c0: 0b                                         ; OPCODE_DROP
00000c1: 0f                                         ; OPCODE_END
; move data: [16, c2) -> [17, c3)
0000015: ac01                                       ; FIXUP func body size
; move data: [14, c3) -> [15, c4)
0000013: af01                                       ; FIXUP section size
;; dump
0000000: 0061 736d 0c00 0000 0104 0140 0000 0302  
0000010: 0100 0aaf 0101 ac01 0012 0000 0000 0000  
0000020: 0000 0b12 0000 0000 5034 1241 0b12 0000  
0000030: 0000 0000 3045 0b12 0000 0000 0000 e07f  
0000040: 0b12 0000 0000 0000 907f 0b12 0000 0000  
0000050: 0030 c27f 0b12 00e0 ffff ffff df7f 0b12  
0000060: c0ff ffff ffff cf7f 0b12 0000 0000 0000  
0000070: f07f 0b12 fcff ffff ffff ef7f 0b12 feff  
0000080: ffff ffff ef7f 0b12 f1ff ffff ffff df02  
0000090: 0b12 f3ff ffff ffff df02 0b12 0000 0000  
00000a0: 0000 8001 0b12 0000 0000 0000 f13f 0b12  
00000b0: 0000 0000 0000 7042 0b12 0000 0000 10f0  
00000c0: 0fc0 0b0f                                
;;; STDOUT ;;)
