;;; FLAGS: -dv
(module
  (func
    (if (i32.const 1)
      (then (nop) (nop)))))
(;; STDOUT ;;;
0000000: 0061 736d                                  ; WASM_BINARY_MAGIC
0000004: 0a00 0000                                  ; WASM_BINARY_VERSION
0000008: 01                                         ; WASM_BINARY_SECTION_SIGNATURES
0000009: 01                                         ; num signatures
; signature 0
000000a: 00                                         ; num params
000000b: 00                                         ; result_type
000000c: 02                                         ; WASM_BINARY_SECTION_FUNCTIONS
000000d: 01                                         ; num functions
; function 0
000000e: 00                                         ; func flags
000000f: 0000                                       ; func signature index
0000011: 0000                                       ; func body size
0000013: 03                                         ; OPCODE_IF
0000014: 0a                                         ; OPCODE_I32_CONST
0000015: 01                                         ; i32 literal
0000016: 01                                         ; OPCODE_BLOCK
0000017: 02                                         ; num expressions
0000018: 00                                         ; OPCODE_NOP
0000019: 00                                         ; OPCODE_NOP
0000011: 0700                                       ; FIXUP func body size
000001a: 06                                         ; WASM_BINARY_SECTION_END
;; dump
0000000: 0061 736d 0a00 0000 0101 0000 0201 0000  
0000010: 0007 0003 0a01 0102 0000 06              
;;; STDOUT ;;)
