;;; TOOL: run-objdump
;;; ARGS: -v
(module
  (func
    i32.const 1
    if 
      nop 
      nop
    end))
(;; STDOUT ;;;
0000000: 0061 736d                                 ; WASM_BINARY_MAGIC
0000004: 0100 0000                                 ; WASM_BINARY_VERSION
; section "Type" (1)
0000008: 01                                        ; section code
0000009: 00                                        ; section size (guess)
000000a: 01                                        ; num types
; type 0
000000b: 60                                        ; func
000000c: 00                                        ; num params
000000d: 00                                        ; num results
0000009: 04                                        ; FIXUP section size
; section "Function" (3)
000000e: 03                                        ; section code
000000f: 00                                        ; section size (guess)
0000010: 01                                        ; num functions
0000011: 00                                        ; function 0 signature index
000000f: 02                                        ; FIXUP section size
; section "Code" (10)
0000012: 0a                                        ; section code
0000013: 00                                        ; section size (guess)
0000014: 01                                        ; num functions
; function body 0
0000015: 00                                        ; func body size (guess)
0000016: 00                                        ; local decl count
0000017: 41                                        ; i32.const
0000018: 01                                        ; i32 literal
0000019: 04                                        ; if
000001a: 40                                        ; void
000001b: 01                                        ; nop
000001c: 01                                        ; nop
000001d: 0b                                        ; end
000001e: 0b                                        ; end
0000015: 09                                        ; FIXUP func body size
0000013: 0b                                        ; FIXUP section size

if-then-list.wasm:	file format wasm 0x1

Code Disassembly:

000015 func[0]:
 000017: 41 01                      | i32.const 1
 000019: 04 40                      | if
 00001b: 01                         |   nop
 00001c: 01                         |   nop
 00001d: 0b                         | end
 00001e: 0b                         | end
;;; STDOUT ;;)
