;;; FLAGS: -dv
(module
  (func
    (if (i32.const 1)
      (then
        (drop (i32.const 2))
        (drop (i32.const 3)))
      (else
        (drop (i32.const 4))
        (drop (i32.const 5))))))
(;; STDOUT ;;;
0000000: 0061 736d                                  ; WASM_BINARY_MAGIC
0000004: 0c00 0000                                  ; WASM_BINARY_VERSION
; section "TYPE" (1)
0000008: 01                                         ; section code
0000009: 00                                         ; section size (guess)
000000a: 01                                         ; num types
; type 0
000000b: 40                                         ; function form
000000c: 00                                         ; num params
000000d: 00                                         ; num results
0000009: 04                                         ; FIXUP section size
; section "FUNCTION" (3)
000000e: 03                                         ; section code
000000f: 00                                         ; section size (guess)
0000010: 01                                         ; num functions
0000011: 00                                         ; function 0 signature index
000000f: 02                                         ; FIXUP section size
; section "CODE" (10)
0000012: 0a                                         ; section code
0000013: 00                                         ; section size (guess)
0000014: 01                                         ; num functions
; function body 0
0000015: 00                                         ; func body size (guess)
0000016: 00                                         ; local decl count
0000017: 10                                         ; OPCODE_I32_CONST
0000018: 01                                         ; i32 literal
0000019: 03                                         ; OPCODE_IF
000001a: 00                                         ; WASM_TYPE_VOID
000001b: 10                                         ; OPCODE_I32_CONST
000001c: 02                                         ; i32 literal
000001d: 0b                                         ; OPCODE_DROP
000001e: 10                                         ; OPCODE_I32_CONST
000001f: 03                                         ; i32 literal
0000020: 0b                                         ; OPCODE_DROP
0000021: 04                                         ; OPCODE_ELSE
0000022: 10                                         ; OPCODE_I32_CONST
0000023: 04                                         ; i32 literal
0000024: 0b                                         ; OPCODE_DROP
0000025: 10                                         ; OPCODE_I32_CONST
0000026: 05                                         ; i32 literal
0000027: 0b                                         ; OPCODE_DROP
0000028: 0f                                         ; OPCODE_END
0000029: 0f                                         ; OPCODE_END
0000015: 14                                         ; FIXUP func body size
0000013: 16                                         ; FIXUP section size
;; dump
0000000: 0061 736d 0c00 0000 0104 0140 0000 0302  
0000010: 0100 0a16 0114 0010 0103 0010 020b 1003  
0000020: 0b04 1004 0b10 050b 0f0f                 
;;; STDOUT ;;)
