;;; FLAGS: -dv
(module
  (func
    (if (i32.const 1) (nop))
    (if (i32.const 0) (f32.const 1.0) (f32.const 2.0)))
  (func
    (if (i32.const 1) (return) (return))))
(;; STDOUT ;;;
0000000: 0061 736d                                  ; WASM_BINARY_MAGIC
0000004: 0a00 0000                                  ; WASM_BINARY_VERSION
; section "signatures"
0000008: 00                                         ; section size (guess)
0000009: 0a                                         ; string length
000000a: 7369 676e 6174 7572 6573                   ; section id: "signatures"
0000014: 01                                         ; num signatures
; signature 0
0000015: 00                                         ; num params
0000016: 00                                         ; result_type
0000008: 0e                                         ; FIXUP section size
; section "function_signatures"
0000017: 00                                         ; section size (guess)
0000018: 13                                         ; string length
0000019: 6675 6e63 7469 6f6e 5f73 6967 6e61 7475  
0000029: 7265 73                                    ; section id: "function_signatures"
000002c: 02                                         ; num functions
000002d: 00                                         ; function 0 signature index
000002e: 00                                         ; function 1 signature index
0000017: 17                                         ; FIXUP section size
; section "function_bodies"
000002f: 00                                         ; section size (guess)
0000030: 0f                                         ; string length
0000031: 6675 6e63 7469 6f6e 5f62 6f64 6965 73      ; section id: "function_bodies"
0000040: 02                                         ; num functions
; function body 0
0000041: 00                                         ; func body size (guess)
0000042: 00                                         ; local decl count
0000043: 03                                         ; OPCODE_IF
0000044: 0a                                         ; OPCODE_I32_CONST
0000045: 01                                         ; i32 literal
0000046: 00                                         ; OPCODE_NOP
0000047: 04                                         ; OPCODE_IF_THEN
0000048: 0a                                         ; OPCODE_I32_CONST
0000049: 00                                         ; i32 literal
000004a: 0d                                         ; OPCODE_F32_CONST
000004b: 0000 803f                                  ; f32 literal
000004f: 0d                                         ; OPCODE_F32_CONST
0000050: 0000 0040                                  ; f32 literal
0000041: 12                                         ; FIXUP func body size
; function body 1
0000054: 00                                         ; func body size (guess)
0000055: 00                                         ; local decl count
0000056: 04                                         ; OPCODE_IF_THEN
0000057: 0a                                         ; OPCODE_I32_CONST
0000058: 01                                         ; i32 literal
0000059: 14                                         ; OPCODE_RETURN
000005a: 14                                         ; OPCODE_RETURN
0000054: 06                                         ; FIXUP func body size
000002f: 2b                                         ; FIXUP section size
;; dump
0000000: 0061 736d 0a00 0000 0e0a 7369 676e 6174  
0000010: 7572 6573 0100 0017 1366 756e 6374 696f  
0000020: 6e5f 7369 676e 6174 7572 6573 0200 002b  
0000030: 0f66 756e 6374 696f 6e5f 626f 6469 6573  
0000040: 0212 0003 0a01 0004 0a00 0d00 0080 3f0d  
0000050: 0000 0040 0600 040a 0114 14              
;;; STDOUT ;;)
