# FLAGS: -dv
(module
  (func
    (if (i32.const 1) (nop))
    (if (i32.const 0) (f32.const 1.0) (f32.const 2.0))))
# STDOUT:
0000000: 14                                         ; mem size log 2
0000001: 01                                         ; export mem
0000002: 0000                                       ; num globals
0000004: 0100                                       ; num funcs
0000006: 0000                                       ; num data segments
0000008: 00                                         ; func num args
0000009: 00                                         ; func result type
000000a: 0000 0000                                  ; func name offset
000000e: 0000 0000                                  ; func code start offset
0000012: 0000 0000                                  ; func code end offset
0000016: 0000                                       ; num local i32
0000018: 0000                                       ; num local i64
000001a: 0000                                       ; num local f32
000001c: 0000                                       ; num local f64
000001e: 00                                         ; export func
000001f: 00                                         ; func external
000000e: 2000 0000                                  ; FIXUP func code start offset
0000020: 01                                         ; OPCODE_IF
0000021: 11                                         ; OPCODE_I32_CONST
0000022: 0100 0000                                  ; u32 literal
0000026: 00                                         ; OPCODE_NOP
0000027: 01                                         ; OPCODE_IF
0000028: 11                                         ; OPCODE_I32_CONST
0000029: 0000 0000                                  ; u32 literal
000002d: 14                                         ; OPCODE_F32_CONST
000002e: 0000 803f                                  ; f32 literal
0000027: 02                                         ; FIXUP OPCODE_IF_THEN
0000032: 14                                         ; OPCODE_F32_CONST
0000033: 0000 0040                                  ; f32 literal
0000012: 3700 0000                                  ; FIXUP func code end offset
0000000: 1401 0000 0100 0000 0000 0000 0000 2000  .............. .
0000010: 0000 3700 0000 0000 0000 0000 0000 0000  ..7.............
0000020: 0111 0100 0000 0002 1100 0000 0014 0000  ................
0000030: 803f 1400 0000 40                        .?....@
