;;; TOOL: run-objdump
;;; ARGS0: -v --enable-exceptions
(module
  (except $e i32)

  (func
    try
      nop
    catch
      if_except (result i32) $e
      else
        i32.const 1
      end
      drop
    end))
(;; STDOUT ;;;
0000000: 0061 736d                                 ; WASM_BINARY_MAGIC
0000004: 0100 0000                                 ; WASM_BINARY_VERSION
; section "Type" (1)
0000008: 01                                        ; section code
0000009: 00                                        ; section size (guess)
000000a: 01                                        ; num types
; type 0
000000b: 60                                        ; func
000000c: 00                                        ; num params
000000d: 00                                        ; num results
0000009: 04                                        ; FIXUP section size
; section "Function" (3)
000000e: 03                                        ; section code
000000f: 00                                        ; section size (guess)
0000010: 01                                        ; num functions
0000011: 00                                        ; function 0 signature index
000000f: 02                                        ; FIXUP section size
; section "exception"
0000012: 00                                        ; section code
0000013: 00                                        ; section size (guess)
0000014: 09                                        ; string length
0000015: 6578 6365 7074 696f 6e                   exception  ; custom section name
000001e: 01                                        ; exception count
000001f: 01                                        ; exception type count
0000020: 7f                                        ; i32
0000013: 0d                                        ; FIXUP section size
; section "Code" (10)
0000021: 0a                                        ; section code
0000022: 00                                        ; section size (guess)
0000023: 01                                        ; num functions
; function body 0
0000024: 00                                        ; func body size (guess)
0000025: 00                                        ; local decl count
0000026: 06                                        ; try
0000027: 40                                        ; void
0000028: 01                                        ; nop
0000029: 07                                        ; catch
000002a: 0a                                        ; if_except
000002b: 7f                                        ; i32
000002c: 00                                        ; exception index
000002d: 05                                        ; else
000002e: 41                                        ; i32.const
000002f: 01                                        ; i32 literal
0000030: 0b                                        ; end
0000031: 1a                                        ; drop
0000032: 0b                                        ; end
0000033: 0b                                        ; end
0000024: 0f                                        ; FIXUP func body size
0000022: 11                                        ; FIXUP section size

if_except.wasm:	file format wasm 0x1

Code Disassembly:

000024 func[0]:
 000026: 06 40                      | try 
 000028: 01                         |   nop
 000029: 07                         | catch
 00002a: 0a 7f 00                   |   if_except i32 0
 00002d: 05                         |   else
 00002e: 41 01                      |     i32.const 1
 000030: 0b                         |   end
 000031: 1a                         |   drop
 000032: 0b                         | end
 000033: 0b                         | end
;;; STDOUT ;;)
