;;; FLAGS: -dv
(module
  ;; The binary encoding currently doesn't support the module name, so just use
  ;; the func name
  (import "ignored" "test" (param i32 i64 f32 f64))
  (import "ignored" "test2" (param i32) (result i32)))
(;; STDOUT ;;;
0000000: 0061 736d                                  ; WASM_BINARY_MAGIC
0000004: 0a00 0000                                  ; WASM_BINARY_VERSION
0000008: 01                                         ; WASM_BINARY_SECTION_SIGNATURES
0000009: 02                                         ; num signatures
; signature 0
000000a: 04                                         ; num params
000000b: 00                                         ; result_type
000000c: 01                                         ; param type
000000d: 02                                         ; param type
000000e: 03                                         ; param type
000000f: 04                                         ; param type
; signature 1
0000010: 01                                         ; num params
0000011: 01                                         ; result_type
0000012: 01                                         ; param type
0000013: 08                                         ; WASM_BINARY_SECTION_IMPORTS
0000014: 02                                         ; num imports
; import header 0
0000015: 00                                         ; import signature index
0000016: 0000 0000                                  ; import module name offset
000001a: 0000 0000                                  ; import function name offset
; import header 1
000001e: 01                                         ; import signature index
000001f: 0000 0000                                  ; import module name offset
0000023: 0000 0000                                  ; import function name offset
0000027: 06                                         ; WASM_BINARY_SECTION_END
; import 0
0000016: 2800 0000                                  ; FIXUP import module name offset
0000028: 6967 6e6f 7265 64                          ; import module name
000002f: 00                                         ; \0
000001a: 3000 0000                                  ; FIXUP import function name offset
0000030: 7465 7374                                  ; import function name
0000034: 00                                         ; \0
; import 1
000001f: 3500 0000                                  ; FIXUP import module name offset
0000035: 6967 6e6f 7265 64                          ; import module name
000003c: 00                                         ; \0
0000023: 3d00 0000                                  ; FIXUP import function name offset
000003d: 7465 7374 32                               ; import function name
0000042: 00                                         ; \0
;; dump
0000000: 0061 736d 0a00 0000 0102 0400 0102 0304  
0000010: 0101 0108 0200 2800 0000 3000 0000 0135  
0000020: 0000 003d 0000 0006 6967 6e6f 7265 6400  
0000030: 7465 7374 0069 676e 6f72 6564 0074 6573  
0000040: 7432 00                                  
;;; STDOUT ;;)
