;;; FLAGS: -dv
(module
  ;; v8-native-prototype doesn't support module name, so just use the func name
  (import "ignored" "test" (param i32 i64 f32 f64))
  (import "ignored" "test2" (param i32) (result i32)))
(;; STDOUT ;;;
0000000: 00                                         ; WASM_SECTION_MEMORY
0000001: 00                                         ; min mem size log 2
0000002: 00                                         ; max mem size log 2
0000003: 01                                         ; export mem
0000004: 01                                         ; WASM_SECTION_SIGNATURES
0000005: 02                                         ; num signatures
; signature 0
0000006: 04                                         ; num args
0000007: 00                                         ; result_type
0000008: 01                                         ; arg type
0000009: 02                                         ; arg type
000000a: 03                                         ; arg type
000000b: 04                                         ; arg type
; signature 1
000000c: 01                                         ; num args
000000d: 01                                         ; result_type
000000e: 01                                         ; arg type
000000f: 02                                         ; WASM_SECTION_FUNCTIONS
0000010: 02                                         ; num functions
; import header 0
0000011: 03                                         ; import flags
0000012: 0000                                       ; import signature index
0000014: 0000 0000                                  ; import name offset
; import header 1
0000018: 03                                         ; import flags
0000019: 0100                                       ; import signature index
000001b: 0000 0000                                  ; import name offset
000001f: 06                                         ; WASM_SECTION_END
; names
0000014: 2000 0000                                  ; FIXUP import name offset
0000020: 7465 7374 00                               ; import name
000001b: 2500 0000                                  ; FIXUP import name offset
0000025: 7465 7374 3200                             ; import name
0000000: 0000 0001 0102 0400 0102 0304 0101 0102  ................
0000010: 0203 0000 2000 0000 0301 0025 0000 0006  .... ......%....
0000020: 7465 7374 0074 6573 7432 00              test.test2.
;;; STDOUT ;;)
