;;; FLAGS: -dv
(module
  ;; The binary encoding currently doesn't support the module name, so just use
  ;; the func name
  (import "ignored" "test" (param i32 i64 f32 f64))
  (import "ignored" "test2" (param i32) (result i32)))
(;; STDOUT ;;;
0000000: 0061 736d                                  ; WASM_BINARY_MAGIC
0000004: 0a00 0000                                  ; WASM_BINARY_VERSION
0000008: 01                                         ; WASM_BINARY_SECTION_SIGNATURES
0000009: 02                                         ; num signatures
; signature 0
000000a: 04                                         ; num params
000000b: 00                                         ; result_type
000000c: 01                                         ; param type
000000d: 02                                         ; param type
000000e: 03                                         ; param type
000000f: 04                                         ; param type
; signature 1
0000010: 01                                         ; num params
0000011: 01                                         ; result_type
0000012: 01                                         ; param type
0000013: 08                                         ; WASM_BINARY_SECTION_IMPORTS
0000014: 02                                         ; num imports
; import header 0
0000015: 00                                         ; import signature index
0000016: 07                                         ; string length
0000017: 6967 6e6f 7265 64                          ; import module name
000001e: 04                                         ; string length
000001f: 7465 7374                                  ; import function name
; import header 1
0000023: 01                                         ; import signature index
0000024: 07                                         ; string length
0000025: 6967 6e6f 7265 64                          ; import module name
000002c: 05                                         ; string length
000002d: 7465 7374 32                               ; import function name
0000032: 06                                         ; WASM_BINARY_SECTION_END
;; dump
0000000: 0061 736d 0a00 0000 0102 0400 0102 0304  
0000010: 0101 0108 0200 0769 676e 6f72 6564 0474  
0000020: 6573 7401 0769 676e 6f72 6564 0574 6573  
0000030: 7432 06                                  
;;; STDOUT ;;)
