;;; FLAGS: -dv
(module
  ;; v8-native-prototype doesn't support module name, so just use the func name
  (import "ignored" "test" (param i32 i64 f32 f64))
  (import "ignored" "test2" (param i32) (result i32)))
(;; STDOUT ;;;
0000000: 01                                         ; WASM_SECTION_SIGNATURES
0000001: 02                                         ; num signatures
; signature 0
0000002: 04                                         ; num params
0000003: 00                                         ; result_type
0000004: 01                                         ; param type
0000005: 02                                         ; param type
0000006: 03                                         ; param type
0000007: 04                                         ; param type
; signature 1
0000008: 01                                         ; num params
0000009: 01                                         ; result_type
000000a: 01                                         ; param type
000000b: 02                                         ; WASM_SECTION_FUNCTIONS
000000c: 02                                         ; num functions
; import header 0
000000d: 03                                         ; import flags
000000e: 0000                                       ; import signature index
0000010: 0000 0000                                  ; import name offset
; import header 1
0000014: 03                                         ; import flags
0000015: 0100                                       ; import signature index
0000017: 0000 0000                                  ; import name offset
000001b: 06                                         ; WASM_SECTION_END
; import 0
0000010: 1c00 0000                                  ; FIXUP import name offset
000001c: 7465 7374                                  ; import name
0000020: 00                                         ; \0
; import 1
0000017: 2100 0000                                  ; FIXUP import name offset
0000021: 7465 7374 32                               ; import name
0000026: 00                                         ; \0
;; dump
0000000: 0102 0400 0102 0304 0101 0102 0203 0000  
0000010: 1c00 0000 0301 0021 0000 0006 7465 7374  
0000020: 0074 6573 7432 00                        
;;; STDOUT ;;)
