;;; FLAGS: -dv
(module
  ;; The binary encoding currently doesn't support the module name, so just use
  ;; the func name
  (import "ignored" "test" (param i32 i64 f32 f64))
  (import "ignored" "test2" (param i32) (result i32)))
(;; STDOUT ;;;
0000000: 0061 736d                                  ; WASM_BINARY_MAGIC
0000004: 0a00 0000                                  ; WASM_BINARY_VERSION
; section "signatures"
0000008: 00                                         ; section size (guess)
0000009: 0a                                         ; string length
000000a: 7369 676e 6174 7572 6573                   ; section id: "signatures"
0000014: 02                                         ; num signatures
; signature 0
0000015: 04                                         ; num params
0000016: 00                                         ; result_type
0000017: 01                                         ; param type
0000018: 02                                         ; param type
0000019: 03                                         ; param type
000001a: 04                                         ; param type
; signature 1
000001b: 01                                         ; num params
000001c: 01                                         ; result_type
000001d: 01                                         ; param type
0000008: 15                                         ; FIXUP section size
; section "import_table"
000001e: 00                                         ; section size (guess)
000001f: 0c                                         ; string length
0000020: 696d 706f 7274 5f74 6162 6c65              ; section id: "import_table"
000002c: 02                                         ; num imports
; import header 0
000002d: 00                                         ; import signature index
000002e: 07                                         ; string length
000002f: 6967 6e6f 7265 64                        ignored  ; import module name
0000036: 04                                         ; string length
0000037: 7465 7374                                test  ; import function name
; import header 1
000003b: 01                                         ; import signature index
000003c: 07                                         ; string length
000003d: 6967 6e6f 7265 64                        ignored  ; import module name
0000044: 05                                         ; string length
0000045: 7465 7374 32                             test2  ; import function name
000001e: 2b                                         ; FIXUP section size
; section "end"
000004a: 00                                         ; section size (guess)
000004b: 03                                         ; string length
000004c: 656e 64                                    ; section id: "end"
000004a: 04                                         ; FIXUP section size
;; dump
0000000: 0061 736d 0a00 0000 150a 7369 676e 6174  
0000010: 7572 6573 0204 0001 0203 0401 0101 2b0c  
0000020: 696d 706f 7274 5f74 6162 6c65 0200 0769  
0000030: 676e 6f72 6564 0474 6573 7401 0769 676e  
0000040: 6f72 6564 0574 6573 7432 0403 656e 64    
;;; STDOUT ;;)
