;;; TOOL: wat2wasm
;;; ARGS: -v --no-check
(module
  (memory 1)
  (data (i32.add (i32.const 1) (i32.const 2)) "foo"))
(;; STDERR ;;;
0000000: 0061 736d                                 ; WASM_BINARY_MAGIC
0000004: 0100 0000                                 ; WASM_BINARY_VERSION
; section "Memory" (5)
0000008: 05                                        ; section code
0000009: 00                                        ; section size (guess)
000000a: 01                                        ; num memories
; memory 0
000000b: 00                                        ; limits: flags
000000c: 01                                        ; limits: initial
0000009: 03                                        ; FIXUP section size
; section "DataCount" (12)
000000d: 0c                                        ; section code
000000e: 00                                        ; section size (guess)
000000f: 01                                        ; data count
000000e: 01                                        ; FIXUP section size
; truncate to 13 (0xd)
; section "Data" (11)
000000d: 0b                                        ; section code
000000e: 00                                        ; section size (guess)
000000f: 01                                        ; num data segments
; data segment header 0
0000010: 00                                        ; segment flags
0000011: c5                                        ; const_expr.len
0000012: 00                                        ; init expr body size (guess)
0000013: 41                                        ; i32.const
0000014: 01                                        ; i32 literal
0000015: 41                                        ; i32.const
0000016: 02                                        ; i32 literal
0000017: 6a                                        ; i32.add
0000018: 0b                                        ; end
0000012: 06                                        ; FIXUP init expr size
0000019: 03                                        ; data segment size
; data segment data 0
000001a: 666f 6f                                   ; data segment data
000000e: 0e                                        ; FIXUP section size
;;; STDERR ;;)
