;;; FLAGS: -dv
(module
  (global i32 i64 f32 f64)
  (func
    (load_global 0)
    (load_global 1)
    (load_global 2)
    (load_global 3)))
(;; STDOUT ;;;
0000000: 0061 736d                                  ; WASM_BINARY_MAGIC
0000004: 0a00 0000                                  ; WASM_BINARY_VERSION
0000008: 03                                         ; WASM_BINARY_SECTION_GLOBALS
0000009: 04                                         ; num globals
; global header 0
000000a: 0000 0000                                  ; global name offset
000000e: 04                                         ; global mem type
000000f: 00                                         ; export global
; global header 1
0000010: 0000 0000                                  ; global name offset
0000014: 06                                         ; global mem type
0000015: 00                                         ; export global
; global header 2
0000016: 0000 0000                                  ; global name offset
000001a: 08                                         ; global mem type
000001b: 00                                         ; export global
; global header 3
000001c: 0000 0000                                  ; global name offset
0000020: 09                                         ; global mem type
0000021: 00                                         ; export global
0000022: 01                                         ; WASM_BINARY_SECTION_SIGNATURES
0000023: 01                                         ; num signatures
; signature 0
0000024: 00                                         ; num params
0000025: 00                                         ; result_type
0000026: 02                                         ; WASM_BINARY_SECTION_FUNCTIONS
0000027: 01                                         ; num functions
; function 0
0000028: 00                                         ; func flags
0000029: 0000                                       ; func signature index
000002b: 0000                                       ; func body size
000002d: 10                                         ; OPCODE_LOAD_GLOBAL
000002e: 00                                         ; global index
000002f: 10                                         ; OPCODE_LOAD_GLOBAL
0000030: 01                                         ; global index
0000031: 10                                         ; OPCODE_LOAD_GLOBAL
0000032: 02                                         ; global index
0000033: 10                                         ; OPCODE_LOAD_GLOBAL
0000034: 03                                         ; global index
000002b: 0800                                       ; FIXUP func body size
0000035: 06                                         ; WASM_BINARY_SECTION_END
;; dump
0000000: 0061 736d 0a00 0000 0304 0000 0000 0400  
0000010: 0000 0000 0600 0000 0000 0800 0000 0000  
0000020: 0900 0101 0000 0201 0000 0008 0010 0010  
0000030: 0110 0210 0306                           
;;; STDOUT ;;)
