;;; FLAGS: -dv
(module
  (func
    (drop (i32.load8_s align=1 (i32.const 0)))
    (drop (i32.load8_s align=2 (i32.const 0)))
    (drop (i32.load8_s align=4 (i32.const 0)))
    (drop (i32.load8_s align=8 (i32.const 0)))

    (drop (i32.load16_s align=1 (i32.const 0)))
    (drop (i32.load16_s align=2 (i32.const 0)))
    (drop (i32.load16_s align=4 (i32.const 0)))
    (drop (i32.load16_s align=8 (i32.const 0)))

    (drop (i32.load align=1 (i32.const 0)))
    (drop (i32.load align=2 (i32.const 0)))
    (drop (i32.load align=4 (i32.const 0)))
    (drop (i32.load align=8 (i32.const 0)))

    (drop (i64.load align=1 (i32.const 0)))
    (drop (i64.load align=2 (i32.const 0)))
    (drop (i64.load align=4 (i32.const 0)))
    (drop (i64.load align=8 (i32.const 0)))

    (drop (i64.load8_s align=1 (i32.const 0)))
    (drop (i64.load8_s align=2 (i32.const 0)))
    (drop (i64.load8_s align=4 (i32.const 0)))
    (drop (i64.load8_s align=8 (i32.const 0)))

    (drop (i64.load16_s align=1 (i32.const 0)))
    (drop (i64.load16_s align=2 (i32.const 0)))
    (drop (i64.load16_s align=4 (i32.const 0)))
    (drop (i64.load16_s align=8 (i32.const 0)))

    (drop (i64.load32_s align=1 (i32.const 0)))
    (drop (i64.load32_s align=2 (i32.const 0)))
    (drop (i64.load32_s align=4 (i32.const 0)))
    (drop (i64.load32_s align=8 (i32.const 0)))))
(;; STDOUT ;;;
0000000: 0061 736d                                  ; WASM_BINARY_MAGIC
0000004: 0c00 0000                                  ; WASM_BINARY_VERSION
; section "TYPE" (1)
0000008: 01                                         ; section code
0000009: 00                                         ; section size (guess)
000000a: 01                                         ; num types
; type 0
000000b: 40                                         ; function form
000000c: 00                                         ; num params
000000d: 00                                         ; num results
0000009: 04                                         ; FIXUP section size
; section "FUNCTION" (3)
000000e: 03                                         ; section code
000000f: 00                                         ; section size (guess)
0000010: 01                                         ; num functions
0000011: 00                                         ; function 0 signature index
000000f: 02                                         ; FIXUP section size
; section "CODE" (10)
0000012: 0a                                         ; section code
0000013: 00                                         ; section size (guess)
0000014: 01                                         ; num functions
; function body 0
0000015: 00                                         ; func body size (guess)
0000016: 00                                         ; local decl count
0000017: 10                                         ; OPCODE_I32_CONST
0000018: 00                                         ; i32 literal
0000019: 20                                         ; OPCODE_I32_LOAD8_S
000001a: 00                                         ; alignment
000001b: 00                                         ; load offset
000001c: 0b                                         ; OPCODE_DROP
000001d: 10                                         ; OPCODE_I32_CONST
000001e: 00                                         ; i32 literal
000001f: 20                                         ; OPCODE_I32_LOAD8_S
0000020: 01                                         ; alignment
0000021: 00                                         ; load offset
0000022: 0b                                         ; OPCODE_DROP
0000023: 10                                         ; OPCODE_I32_CONST
0000024: 00                                         ; i32 literal
0000025: 20                                         ; OPCODE_I32_LOAD8_S
0000026: 02                                         ; alignment
0000027: 00                                         ; load offset
0000028: 0b                                         ; OPCODE_DROP
0000029: 10                                         ; OPCODE_I32_CONST
000002a: 00                                         ; i32 literal
000002b: 20                                         ; OPCODE_I32_LOAD8_S
000002c: 03                                         ; alignment
000002d: 00                                         ; load offset
000002e: 0b                                         ; OPCODE_DROP
000002f: 10                                         ; OPCODE_I32_CONST
0000030: 00                                         ; i32 literal
0000031: 22                                         ; OPCODE_I32_LOAD16_S
0000032: 00                                         ; alignment
0000033: 00                                         ; load offset
0000034: 0b                                         ; OPCODE_DROP
0000035: 10                                         ; OPCODE_I32_CONST
0000036: 00                                         ; i32 literal
0000037: 22                                         ; OPCODE_I32_LOAD16_S
0000038: 01                                         ; alignment
0000039: 00                                         ; load offset
000003a: 0b                                         ; OPCODE_DROP
000003b: 10                                         ; OPCODE_I32_CONST
000003c: 00                                         ; i32 literal
000003d: 22                                         ; OPCODE_I32_LOAD16_S
000003e: 02                                         ; alignment
000003f: 00                                         ; load offset
0000040: 0b                                         ; OPCODE_DROP
0000041: 10                                         ; OPCODE_I32_CONST
0000042: 00                                         ; i32 literal
0000043: 22                                         ; OPCODE_I32_LOAD16_S
0000044: 03                                         ; alignment
0000045: 00                                         ; load offset
0000046: 0b                                         ; OPCODE_DROP
0000047: 10                                         ; OPCODE_I32_CONST
0000048: 00                                         ; i32 literal
0000049: 2a                                         ; OPCODE_I32_LOAD
000004a: 00                                         ; alignment
000004b: 00                                         ; load offset
000004c: 0b                                         ; OPCODE_DROP
000004d: 10                                         ; OPCODE_I32_CONST
000004e: 00                                         ; i32 literal
000004f: 2a                                         ; OPCODE_I32_LOAD
0000050: 01                                         ; alignment
0000051: 00                                         ; load offset
0000052: 0b                                         ; OPCODE_DROP
0000053: 10                                         ; OPCODE_I32_CONST
0000054: 00                                         ; i32 literal
0000055: 2a                                         ; OPCODE_I32_LOAD
0000056: 02                                         ; alignment
0000057: 00                                         ; load offset
0000058: 0b                                         ; OPCODE_DROP
0000059: 10                                         ; OPCODE_I32_CONST
000005a: 00                                         ; i32 literal
000005b: 2a                                         ; OPCODE_I32_LOAD
000005c: 03                                         ; alignment
000005d: 00                                         ; load offset
000005e: 0b                                         ; OPCODE_DROP
000005f: 10                                         ; OPCODE_I32_CONST
0000060: 00                                         ; i32 literal
0000061: 2b                                         ; OPCODE_I64_LOAD
0000062: 00                                         ; alignment
0000063: 00                                         ; load offset
0000064: 0b                                         ; OPCODE_DROP
0000065: 10                                         ; OPCODE_I32_CONST
0000066: 00                                         ; i32 literal
0000067: 2b                                         ; OPCODE_I64_LOAD
0000068: 01                                         ; alignment
0000069: 00                                         ; load offset
000006a: 0b                                         ; OPCODE_DROP
000006b: 10                                         ; OPCODE_I32_CONST
000006c: 00                                         ; i32 literal
000006d: 2b                                         ; OPCODE_I64_LOAD
000006e: 02                                         ; alignment
000006f: 00                                         ; load offset
0000070: 0b                                         ; OPCODE_DROP
0000071: 10                                         ; OPCODE_I32_CONST
0000072: 00                                         ; i32 literal
0000073: 2b                                         ; OPCODE_I64_LOAD
0000074: 03                                         ; alignment
0000075: 00                                         ; load offset
0000076: 0b                                         ; OPCODE_DROP
0000077: 10                                         ; OPCODE_I32_CONST
0000078: 00                                         ; i32 literal
0000079: 24                                         ; OPCODE_I64_LOAD8_S
000007a: 00                                         ; alignment
000007b: 00                                         ; load offset
000007c: 0b                                         ; OPCODE_DROP
000007d: 10                                         ; OPCODE_I32_CONST
000007e: 00                                         ; i32 literal
000007f: 24                                         ; OPCODE_I64_LOAD8_S
0000080: 01                                         ; alignment
0000081: 00                                         ; load offset
0000082: 0b                                         ; OPCODE_DROP
0000083: 10                                         ; OPCODE_I32_CONST
0000084: 00                                         ; i32 literal
0000085: 24                                         ; OPCODE_I64_LOAD8_S
0000086: 02                                         ; alignment
0000087: 00                                         ; load offset
0000088: 0b                                         ; OPCODE_DROP
0000089: 10                                         ; OPCODE_I32_CONST
000008a: 00                                         ; i32 literal
000008b: 24                                         ; OPCODE_I64_LOAD8_S
000008c: 03                                         ; alignment
000008d: 00                                         ; load offset
000008e: 0b                                         ; OPCODE_DROP
000008f: 10                                         ; OPCODE_I32_CONST
0000090: 00                                         ; i32 literal
0000091: 26                                         ; OPCODE_I64_LOAD16_S
0000092: 00                                         ; alignment
0000093: 00                                         ; load offset
0000094: 0b                                         ; OPCODE_DROP
0000095: 10                                         ; OPCODE_I32_CONST
0000096: 00                                         ; i32 literal
0000097: 26                                         ; OPCODE_I64_LOAD16_S
0000098: 01                                         ; alignment
0000099: 00                                         ; load offset
000009a: 0b                                         ; OPCODE_DROP
000009b: 10                                         ; OPCODE_I32_CONST
000009c: 00                                         ; i32 literal
000009d: 26                                         ; OPCODE_I64_LOAD16_S
000009e: 02                                         ; alignment
000009f: 00                                         ; load offset
00000a0: 0b                                         ; OPCODE_DROP
00000a1: 10                                         ; OPCODE_I32_CONST
00000a2: 00                                         ; i32 literal
00000a3: 26                                         ; OPCODE_I64_LOAD16_S
00000a4: 03                                         ; alignment
00000a5: 00                                         ; load offset
00000a6: 0b                                         ; OPCODE_DROP
00000a7: 10                                         ; OPCODE_I32_CONST
00000a8: 00                                         ; i32 literal
00000a9: 28                                         ; OPCODE_I64_LOAD32_S
00000aa: 00                                         ; alignment
00000ab: 00                                         ; load offset
00000ac: 0b                                         ; OPCODE_DROP
00000ad: 10                                         ; OPCODE_I32_CONST
00000ae: 00                                         ; i32 literal
00000af: 28                                         ; OPCODE_I64_LOAD32_S
00000b0: 01                                         ; alignment
00000b1: 00                                         ; load offset
00000b2: 0b                                         ; OPCODE_DROP
00000b3: 10                                         ; OPCODE_I32_CONST
00000b4: 00                                         ; i32 literal
00000b5: 28                                         ; OPCODE_I64_LOAD32_S
00000b6: 02                                         ; alignment
00000b7: 00                                         ; load offset
00000b8: 0b                                         ; OPCODE_DROP
00000b9: 10                                         ; OPCODE_I32_CONST
00000ba: 00                                         ; i32 literal
00000bb: 28                                         ; OPCODE_I64_LOAD32_S
00000bc: 03                                         ; alignment
00000bd: 00                                         ; load offset
00000be: 0b                                         ; OPCODE_DROP
00000bf: 0f                                         ; OPCODE_END
; move data: [16, c0) -> [17, c1)
0000015: aa01                                       ; FIXUP func body size
; move data: [14, c1) -> [15, c2)
0000013: ad01                                       ; FIXUP section size
;; dump
0000000: 0061 736d 0c00 0000 0104 0140 0000 0302  
0000010: 0100 0aad 0101 aa01 0010 0020 0000 0b10  
0000020: 0020 0100 0b10 0020 0200 0b10 0020 0300  
0000030: 0b10 0022 0000 0b10 0022 0100 0b10 0022  
0000040: 0200 0b10 0022 0300 0b10 002a 0000 0b10  
0000050: 002a 0100 0b10 002a 0200 0b10 002a 0300  
0000060: 0b10 002b 0000 0b10 002b 0100 0b10 002b  
0000070: 0200 0b10 002b 0300 0b10 0024 0000 0b10  
0000080: 0024 0100 0b10 0024 0200 0b10 0024 0300  
0000090: 0b10 0026 0000 0b10 0026 0100 0b10 0026  
00000a0: 0200 0b10 0026 0300 0b10 0028 0000 0b10  
00000b0: 0028 0100 0b10 0028 0200 0b10 0028 0300  
00000c0: 0b0f                                     
;;; STDOUT ;;)
