# FLAGS: -dv
(module
  (func
    (i32.load (i32.const 0))
    (i64.load (i32.const 0))
    (i32.load8_s (i32.const 0))
    (i32.load16_s (i32.const 0))
    (i32.load8_u (i32.const 0))
    (i32.load16_u (i32.const 0))
    (f32.load (i32.const 0))
    (f64.load (i32.const 0))))
# STDOUT:
0000000: 00                                         ; mem size log 2
0000001: 01                                         ; export mem
0000002: 0000                                       ; num globals
0000004: 0100                                       ; num funcs
0000006: 0000                                       ; num data segments
; function header 0
0000008: 00                                         ; func num args
0000009: 00                                         ; func result type
000000a: 0000 0000                                  ; func name offset
000000e: 0000 0000                                  ; func code start offset
0000012: 0000 0000                                  ; func code end offset
0000016: 0000                                       ; num local i32
0000018: 0000                                       ; num local i64
000001a: 0000                                       ; num local f32
000001c: 0000                                       ; num local f64
000001e: 00                                         ; export func
000001f: 00                                         ; func external
; function data 0
000000e: 2000 0000                                  ; FIXUP func code start offset
0000020: 03                                         ; OPCODE_BLOCK
0000021: 00                                         ; toplevel block num expressions
0000022: 20                                         ; OPCODE_I32_LOAD_I32
0000023: 06                                         ; load access byte
0000024: 11                                         ; OPCODE_I32_CONST
0000025: 0000 0000                                  ; u32 literal
0000029: 21                                         ; OPCODE_I64_LOAD_I32
000002a: 07                                         ; load access byte
000002b: 11                                         ; OPCODE_I32_CONST
000002c: 0000 0000                                  ; u32 literal
0000030: 20                                         ; OPCODE_I32_LOAD_I32
0000031: 04                                         ; load access byte
0000032: 11                                         ; OPCODE_I32_CONST
0000033: 0000 0000                                  ; u32 literal
0000037: 20                                         ; OPCODE_I32_LOAD_I32
0000038: 05                                         ; load access byte
0000039: 11                                         ; OPCODE_I32_CONST
000003a: 0000 0000                                  ; u32 literal
000003e: 20                                         ; OPCODE_I32_LOAD_I32
000003f: 00                                         ; load access byte
0000040: 11                                         ; OPCODE_I32_CONST
0000041: 0000 0000                                  ; u32 literal
0000045: 20                                         ; OPCODE_I32_LOAD_I32
0000046: 01                                         ; load access byte
0000047: 11                                         ; OPCODE_I32_CONST
0000048: 0000 0000                                  ; u32 literal
000004c: 22                                         ; OPCODE_F32_LOAD_I32
000004d: 00                                         ; load access byte
000004e: 11                                         ; OPCODE_I32_CONST
000004f: 0000 0000                                  ; u32 literal
0000053: 23                                         ; OPCODE_F64_LOAD_I32
0000054: 00                                         ; load access byte
0000055: 11                                         ; OPCODE_I32_CONST
0000056: 0000 0000                                  ; u32 literal
0000021: 08                                         ; FIXUP toplevel block num expressions
0000012: 5a00 0000                                  ; FIXUP func code end offset
; names
0000000: 0001 0000 0100 0000 0000 0000 0000 2000  .............. .
0000010: 0000 5a00 0000 0000 0000 0000 0000 0000  ..Z.............
0000020: 0308 2006 1100 0000 0021 0711 0000 0000  .. ......!......
0000030: 2004 1100 0000 0020 0511 0000 0000 2000   ...... ...... .
0000040: 1100 0000 0020 0111 0000 0000 2200 1100  ..... ......"...
0000050: 0000 0023 0011 0000 0000                 ...#......
