;;; FLAGS: -dv
(module
  (func (local i32 i64 i64 f32 f32 f32 f64 f64 f64 f64)))
(;; STDOUT ;;;
0000000: 0061 736d                                  ; WASM_BINARY_MAGIC
0000004: 0a00 0000                                  ; WASM_BINARY_VERSION
0000008: 01                                         ; WASM_BINARY_SECTION_SIGNATURES
0000009: 01                                         ; num signatures
; signature 0
000000a: 00                                         ; num params
000000b: 00                                         ; result_type
000000c: 0a                                         ; WASM_BINARY_SECTION_FUNCTION_SIGNATURES
000000d: 01                                         ; num functions
000000e: 00                                         ; function 0 signature index
000000f: 0b                                         ; WASM_BINARY_SECTION_FUNCTION_BODIES
0000010: 01                                         ; num functions
; function body 0
0000011: 00                                         ; func body size (guess)
0000012: 04                                         ; local decl count
0000013: 01                                         ; local i32 count
0000014: 01                                         ; WASM_TYPE_I32
0000015: 02                                         ; local i64 count
0000016: 02                                         ; WASM_TYPE_I64
0000017: 03                                         ; local f32 count
0000018: 03                                         ; WASM_TYPE_F32
0000019: 04                                         ; local f64 count
000001a: 04                                         ; WASM_TYPE_F64
0000011: 09                                         ; FIXUP func body size
000001b: 06                                         ; WASM_BINARY_SECTION_END
;; dump
0000000: 0061 736d 0a00 0000 0101 0000 0a01 000b  
0000010: 0109 0401 0102 0203 0304 0406            
;;; STDOUT ;;)
