;;; FLAGS: -dv
(module
  (func (local i32 i64 i64 f32 f32 f32 f64 f64 f64 f64)))
(;; STDOUT ;;;
0000000: 0061 736d                                  ; WASM_BINARY_MAGIC
0000004: 0a00 0000                                  ; WASM_BINARY_VERSION
0000008: 01                                         ; WASM_BINARY_SECTION_SIGNATURES
0000009: 01                                         ; num signatures
; signature 0
000000a: 00                                         ; num params
000000b: 00                                         ; result_type
000000c: 02                                         ; WASM_BINARY_SECTION_FUNCTIONS
000000d: 01                                         ; num functions
; function 0
000000e: 00                                         ; func flags
000000f: 0000                                       ; func signature index
0000011: 0000                                       ; func body size
0000013: 00                                         ; local decl count
0000014: 01                                         ; local i32 count
0000015: 01                                         ; type i32
0000016: 02                                         ; local i64 count
0000017: 02                                         ; type i64
0000018: 03                                         ; local f32 count
0000019: 03                                         ; type f32
000001a: 04                                         ; local f64 count
000001b: 04                                         ; type f64
0000013: 04                                         ; local decl count
0000011: 0900                                       ; FIXUP func body size
000001c: 06                                         ; WASM_BINARY_SECTION_END
;; dump
0000000: 0061 736d 0a00 0000 0101 0000 0201 0000  
0000010: 0009 0004 0101 0202 0303 0404 06         
;;; STDOUT ;;)
