;;; FLAGS: -dv
(module
  (func (local i32 i64 i64 f32 f32 f32 f64 f64 f64 f64)))
(;; STDOUT ;;;
0000000: 0061 736d                                  ; WASM_BINARY_MAGIC
0000004: 0a00 0000                                  ; WASM_BINARY_VERSION
; section "signatures"
0000008: 00                                         ; section size (guess)
0000009: 0a                                         ; string length
000000a: 7369 676e 6174 7572 6573                   ; section id: "signatures"
0000014: 01                                         ; num signatures
; signature 0
0000015: 00                                         ; num params
0000016: 00                                         ; result_type
0000008: 0e                                         ; FIXUP section size
; section "function_signatures"
0000017: 00                                         ; section size (guess)
0000018: 13                                         ; string length
0000019: 6675 6e63 7469 6f6e 5f73 6967 6e61 7475  
0000029: 7265 73                                    ; section id: "function_signatures"
000002c: 01                                         ; num functions
000002d: 00                                         ; function 0 signature index
0000017: 16                                         ; FIXUP section size
; section "function_bodies"
000002e: 00                                         ; section size (guess)
000002f: 0f                                         ; string length
0000030: 6675 6e63 7469 6f6e 5f62 6f64 6965 73      ; section id: "function_bodies"
000003f: 01                                         ; num functions
; function body 0
0000040: 00                                         ; func body size (guess)
0000041: 04                                         ; local decl count
0000042: 01                                         ; local type count
0000043: 01                                         ; WASM_TYPE_I32
0000044: 02                                         ; local type count
0000045: 02                                         ; WASM_TYPE_I64
0000046: 03                                         ; local type count
0000047: 03                                         ; WASM_TYPE_F32
0000048: 04                                         ; local type count
0000049: 04                                         ; WASM_TYPE_F64
0000040: 09                                         ; FIXUP func body size
000002e: 1b                                         ; FIXUP section size
; section "end"
000004a: 00                                         ; section size (guess)
000004b: 03                                         ; string length
000004c: 656e 64                                    ; section id: "end"
000004a: 04                                         ; FIXUP section size
;; dump
0000000: 0061 736d 0a00 0000 0e0a 7369 676e 6174  
0000010: 7572 6573 0100 0016 1366 756e 6374 696f  
0000020: 6e5f 7369 676e 6174 7572 6573 0100 1b0f  
0000030: 6675 6e63 7469 6f6e 5f62 6f64 6965 7301  
0000040: 0904 0101 0202 0303 0404 0403 656e 64    
;;; STDOUT ;;)
