;;; TOOL: run-wasmdump
;;; FLAGS: -v
(module
  (func
    (loop
      (nop)
      (nop))))
(;; STDOUT ;;;
0000000: 0061 736d                                 ; WASM_BINARY_MAGIC
0000004: 0c00 0000                                 ; WASM_BINARY_VERSION
; section "TYPE" (1)
0000008: 01                                        ; section code
0000009: 00                                        ; section size (guess)
000000a: 01                                        ; num types
; type 0
000000b: 40                                        ; function form
000000c: 00                                        ; num params
000000d: 00                                        ; num results
0000009: 04                                        ; FIXUP section size
; section "FUNCTION" (3)
000000e: 03                                        ; section code
000000f: 00                                        ; section size (guess)
0000010: 01                                        ; num functions
0000011: 00                                        ; function 0 signature index
000000f: 02                                        ; FIXUP section size
; section "CODE" (10)
0000012: 0a                                        ; section code
0000013: 00                                        ; section size (guess)
0000014: 01                                        ; num functions
; function body 0
0000015: 00                                        ; func body size (guess)
0000016: 00                                        ; local decl count
0000017: 03                                        ; loop
0000018: 00                                        ; WASM_TYPE_VOID
0000019: 01                                        ; nop
000001a: 01                                        ; nop
000001b: 0b                                        ; end
000001c: 0b                                        ; end
0000015: 07                                        ; FIXUP func body size
0000013: 09                                        ; FIXUP section size
func 0
 000017: 03 00                      | loop
 000019: 01                         |   nop
 00001a: 01                         |   nop
 00001b: 0b                         | end
;;; STDOUT ;;)
