;;; FLAGS: -dv
(module
  (func
    (loop
      (nop)
      (nop))))
(;; STDOUT ;;;
0000000: 01                                         ; WASM_SECTION_SIGNATURES
0000001: 01                                         ; num signatures
; signature 0
0000002: 00                                         ; num params
0000003: 00                                         ; result_type
0000004: 02                                         ; WASM_SECTION_FUNCTIONS
0000005: 01                                         ; num functions
; function 0
0000006: 00                                         ; func flags
0000007: 0000                                       ; func signature index
0000009: 0000                                       ; func body size
000000b: 02                                         ; OPCODE_LOOP
000000c: 02                                         ; num expressions
000000d: 00                                         ; OPCODE_NOP
000000e: 00                                         ; OPCODE_NOP
0000009: 0400                                       ; FIXUP func body size
000000f: 06                                         ; WASM_SECTION_END
;;; STDOUT ;;)
