;;; FLAGS: -dv
(module
  (func
    (loop
      (nop)
      (nop))))
(;; STDOUT ;;;
0000000: 0061 736d                                  ; WASM_BINARY_MAGIC
0000004: 0a00 0000                                  ; WASM_BINARY_VERSION
0000008: 01                                         ; WASM_BINARY_SECTION_SIGNATURES
0000009: 01                                         ; num signatures
; signature 0
000000a: 00                                         ; num params
000000b: 00                                         ; result_type
000000c: 02                                         ; WASM_BINARY_SECTION_FUNCTIONS
000000d: 01                                         ; num functions
; function 0
000000e: 00                                         ; func flags
000000f: 0000                                       ; func signature index
0000011: 0000                                       ; func body size
0000013: 02                                         ; OPCODE_LOOP
0000014: 02                                         ; num expressions
0000015: 00                                         ; OPCODE_NOP
0000016: 00                                         ; OPCODE_NOP
0000011: 0400                                       ; FIXUP func body size
0000017: 06                                         ; WASM_BINARY_SECTION_END
;; dump
0000000: 0061 736d 0a00 0000 0101 0000 0201 0000  
0000010: 0004 0002 0200 0006                      
;;; STDOUT ;;)
