;;; FLAGS: -dv
(module
  (func
    (loop $outer $inner
      ;; 1..64
      (nop) (nop) (nop) (nop) (nop) (nop) (nop) (nop)
      (nop) (nop) (nop) (nop) (nop) (nop) (nop) (nop)
      (nop) (nop) (nop) (nop) (nop) (nop) (nop) (nop)
      (nop) (nop) (nop) (nop) (nop) (nop) (nop) (nop)
      (nop) (nop) (nop) (nop) (nop) (nop) (nop) (nop)
      (nop) (nop) (nop) (nop) (nop) (nop) (nop) (nop)
      (nop) (nop) (nop) (nop) (nop) (nop) (nop) (nop)
      (nop) (nop) (nop) (nop) (nop) (nop) (nop) (nop)

      ;; 65..128
      (nop) (nop) (nop) (nop) (nop) (nop) (nop) (nop)
      (nop) (nop) (nop) (nop) (nop) (nop) (nop) (nop)
      (nop) (nop) (nop) (nop) (nop) (nop) (nop) (nop)
      (nop) (nop) (nop) (nop) (nop) (nop) (nop) (nop)
      (nop) (nop) (nop) (nop) (nop) (nop) (nop) (nop)
      (nop) (nop) (nop) (nop) (nop) (nop) (nop) (nop)
      (nop) (nop) (nop) (nop) (nop) (nop) (nop) (nop)
      (nop) (nop) (nop) (nop) (nop) (nop) (nop) (nop)

      ;; 129..192
      (nop) (nop) (nop) (nop) (nop) (nop) (nop) (nop)
      (nop) (nop) (nop) (nop) (nop) (nop) (nop) (nop)
      (nop) (nop) (nop) (nop) (nop) (nop) (nop) (nop)
      (nop) (nop) (nop) (nop) (nop) (nop) (nop) (nop)
      (nop) (nop) (nop) (nop) (nop) (nop) (nop) (nop)
      (nop) (nop) (nop) (nop) (nop) (nop) (nop) (nop)
      (nop) (nop) (nop) (nop) (nop) (nop) (nop) (nop)
      (nop) (nop) (nop) (nop) (nop) (nop) (nop) (nop)

      ;; 193..256
      (nop) (nop) (nop) (nop) (nop) (nop) (nop) (nop)
      (nop) (nop) (nop) (nop) (nop) (nop) (nop) (nop)
      (nop) (nop) (nop) (nop) (nop) (nop) (nop) (nop)
      (nop) (nop) (nop) (nop) (nop) (nop) (nop) (nop)
      (nop) (nop) (nop) (nop) (nop) (nop) (nop) (nop)
      (nop) (nop) (nop) (nop) (nop) (nop) (nop) (nop)
      (nop) (nop) (nop) (nop) (nop) (nop) (nop) (nop)
      (nop) (nop) (nop) (nop) (nop) (nop) (nop) (nop)

      ;; 257..258
      (br $outer)  ;; depth 2
      (br $inner)  ;; depth 1
      (br 1)       ;; depth 2 (due to implicit block)
      (br 0)       ;; depth 1 (due to implicit block)
)))
(;; STDOUT ;;;
0000000: 0061 736d                                  ; WASM_BINARY_MAGIC
0000004: 0c00 0000                                  ; WASM_BINARY_VERSION
; section "type"
0000008: 04                                         ; string length
0000009: 7479 7065                                  ; section id: "type"
000000d: 00                                         ; section size (guess)
000000e: 01                                         ; num types
; type 0
000000f: 40                                         ; function form
0000010: 00                                         ; num params
0000011: 00                                         ; num results
000000d: 04                                         ; FIXUP section size
; section "function"
0000012: 08                                         ; string length
0000013: 6675 6e63 7469 6f6e                        ; section id: "function"
000001b: 00                                         ; section size (guess)
000001c: 01                                         ; num functions
000001d: 00                                         ; function 0 signature index
000001b: 02                                         ; FIXUP section size
; section "code"
000001e: 04                                         ; string length
000001f: 636f 6465                                  ; section id: "code"
0000023: 00                                         ; section size (guess)
0000024: 01                                         ; num functions
; function body 0
0000025: 00                                         ; func body size (guess)
0000026: 00                                         ; local decl count
0000027: 01                                         ; OPCODE_BLOCK
0000028: 02                                         ; OPCODE_LOOP
0000029: 0a                                         ; OPCODE_NOP
000002a: 0a                                         ; OPCODE_NOP
000002b: 0a                                         ; OPCODE_NOP
000002c: 0a                                         ; OPCODE_NOP
000002d: 0a                                         ; OPCODE_NOP
000002e: 0a                                         ; OPCODE_NOP
000002f: 0a                                         ; OPCODE_NOP
0000030: 0a                                         ; OPCODE_NOP
0000031: 0a                                         ; OPCODE_NOP
0000032: 0a                                         ; OPCODE_NOP
0000033: 0a                                         ; OPCODE_NOP
0000034: 0a                                         ; OPCODE_NOP
0000035: 0a                                         ; OPCODE_NOP
0000036: 0a                                         ; OPCODE_NOP
0000037: 0a                                         ; OPCODE_NOP
0000038: 0a                                         ; OPCODE_NOP
0000039: 0a                                         ; OPCODE_NOP
000003a: 0a                                         ; OPCODE_NOP
000003b: 0a                                         ; OPCODE_NOP
000003c: 0a                                         ; OPCODE_NOP
000003d: 0a                                         ; OPCODE_NOP
000003e: 0a                                         ; OPCODE_NOP
000003f: 0a                                         ; OPCODE_NOP
0000040: 0a                                         ; OPCODE_NOP
0000041: 0a                                         ; OPCODE_NOP
0000042: 0a                                         ; OPCODE_NOP
0000043: 0a                                         ; OPCODE_NOP
0000044: 0a                                         ; OPCODE_NOP
0000045: 0a                                         ; OPCODE_NOP
0000046: 0a                                         ; OPCODE_NOP
0000047: 0a                                         ; OPCODE_NOP
0000048: 0a                                         ; OPCODE_NOP
0000049: 0a                                         ; OPCODE_NOP
000004a: 0a                                         ; OPCODE_NOP
000004b: 0a                                         ; OPCODE_NOP
000004c: 0a                                         ; OPCODE_NOP
000004d: 0a                                         ; OPCODE_NOP
000004e: 0a                                         ; OPCODE_NOP
000004f: 0a                                         ; OPCODE_NOP
0000050: 0a                                         ; OPCODE_NOP
0000051: 0a                                         ; OPCODE_NOP
0000052: 0a                                         ; OPCODE_NOP
0000053: 0a                                         ; OPCODE_NOP
0000054: 0a                                         ; OPCODE_NOP
0000055: 0a                                         ; OPCODE_NOP
0000056: 0a                                         ; OPCODE_NOP
0000057: 0a                                         ; OPCODE_NOP
0000058: 0a                                         ; OPCODE_NOP
0000059: 0a                                         ; OPCODE_NOP
000005a: 0a                                         ; OPCODE_NOP
000005b: 0a                                         ; OPCODE_NOP
000005c: 0a                                         ; OPCODE_NOP
000005d: 0a                                         ; OPCODE_NOP
000005e: 0a                                         ; OPCODE_NOP
000005f: 0a                                         ; OPCODE_NOP
0000060: 0a                                         ; OPCODE_NOP
0000061: 0a                                         ; OPCODE_NOP
0000062: 0a                                         ; OPCODE_NOP
0000063: 0a                                         ; OPCODE_NOP
0000064: 0a                                         ; OPCODE_NOP
0000065: 0a                                         ; OPCODE_NOP
0000066: 0a                                         ; OPCODE_NOP
0000067: 0a                                         ; OPCODE_NOP
0000068: 0a                                         ; OPCODE_NOP
0000069: 0a                                         ; OPCODE_NOP
000006a: 0a                                         ; OPCODE_NOP
000006b: 0a                                         ; OPCODE_NOP
000006c: 0a                                         ; OPCODE_NOP
000006d: 0a                                         ; OPCODE_NOP
000006e: 0a                                         ; OPCODE_NOP
000006f: 0a                                         ; OPCODE_NOP
0000070: 0a                                         ; OPCODE_NOP
0000071: 0a                                         ; OPCODE_NOP
0000072: 0a                                         ; OPCODE_NOP
0000073: 0a                                         ; OPCODE_NOP
0000074: 0a                                         ; OPCODE_NOP
0000075: 0a                                         ; OPCODE_NOP
0000076: 0a                                         ; OPCODE_NOP
0000077: 0a                                         ; OPCODE_NOP
0000078: 0a                                         ; OPCODE_NOP
0000079: 0a                                         ; OPCODE_NOP
000007a: 0a                                         ; OPCODE_NOP
000007b: 0a                                         ; OPCODE_NOP
000007c: 0a                                         ; OPCODE_NOP
000007d: 0a                                         ; OPCODE_NOP
000007e: 0a                                         ; OPCODE_NOP
000007f: 0a                                         ; OPCODE_NOP
0000080: 0a                                         ; OPCODE_NOP
0000081: 0a                                         ; OPCODE_NOP
0000082: 0a                                         ; OPCODE_NOP
0000083: 0a                                         ; OPCODE_NOP
0000084: 0a                                         ; OPCODE_NOP
0000085: 0a                                         ; OPCODE_NOP
0000086: 0a                                         ; OPCODE_NOP
0000087: 0a                                         ; OPCODE_NOP
0000088: 0a                                         ; OPCODE_NOP
0000089: 0a                                         ; OPCODE_NOP
000008a: 0a                                         ; OPCODE_NOP
000008b: 0a                                         ; OPCODE_NOP
000008c: 0a                                         ; OPCODE_NOP
000008d: 0a                                         ; OPCODE_NOP
000008e: 0a                                         ; OPCODE_NOP
000008f: 0a                                         ; OPCODE_NOP
0000090: 0a                                         ; OPCODE_NOP
0000091: 0a                                         ; OPCODE_NOP
0000092: 0a                                         ; OPCODE_NOP
0000093: 0a                                         ; OPCODE_NOP
0000094: 0a                                         ; OPCODE_NOP
0000095: 0a                                         ; OPCODE_NOP
0000096: 0a                                         ; OPCODE_NOP
0000097: 0a                                         ; OPCODE_NOP
0000098: 0a                                         ; OPCODE_NOP
0000099: 0a                                         ; OPCODE_NOP
000009a: 0a                                         ; OPCODE_NOP
000009b: 0a                                         ; OPCODE_NOP
000009c: 0a                                         ; OPCODE_NOP
000009d: 0a                                         ; OPCODE_NOP
000009e: 0a                                         ; OPCODE_NOP
000009f: 0a                                         ; OPCODE_NOP
00000a0: 0a                                         ; OPCODE_NOP
00000a1: 0a                                         ; OPCODE_NOP
00000a2: 0a                                         ; OPCODE_NOP
00000a3: 0a                                         ; OPCODE_NOP
00000a4: 0a                                         ; OPCODE_NOP
00000a5: 0a                                         ; OPCODE_NOP
00000a6: 0a                                         ; OPCODE_NOP
00000a7: 0a                                         ; OPCODE_NOP
00000a8: 0a                                         ; OPCODE_NOP
00000a9: 0a                                         ; OPCODE_NOP
00000aa: 0a                                         ; OPCODE_NOP
00000ab: 0a                                         ; OPCODE_NOP
00000ac: 0a                                         ; OPCODE_NOP
00000ad: 0a                                         ; OPCODE_NOP
00000ae: 0a                                         ; OPCODE_NOP
00000af: 0a                                         ; OPCODE_NOP
00000b0: 0a                                         ; OPCODE_NOP
00000b1: 0a                                         ; OPCODE_NOP
00000b2: 0a                                         ; OPCODE_NOP
00000b3: 0a                                         ; OPCODE_NOP
00000b4: 0a                                         ; OPCODE_NOP
00000b5: 0a                                         ; OPCODE_NOP
00000b6: 0a                                         ; OPCODE_NOP
00000b7: 0a                                         ; OPCODE_NOP
00000b8: 0a                                         ; OPCODE_NOP
00000b9: 0a                                         ; OPCODE_NOP
00000ba: 0a                                         ; OPCODE_NOP
00000bb: 0a                                         ; OPCODE_NOP
00000bc: 0a                                         ; OPCODE_NOP
00000bd: 0a                                         ; OPCODE_NOP
00000be: 0a                                         ; OPCODE_NOP
00000bf: 0a                                         ; OPCODE_NOP
00000c0: 0a                                         ; OPCODE_NOP
00000c1: 0a                                         ; OPCODE_NOP
00000c2: 0a                                         ; OPCODE_NOP
00000c3: 0a                                         ; OPCODE_NOP
00000c4: 0a                                         ; OPCODE_NOP
00000c5: 0a                                         ; OPCODE_NOP
00000c6: 0a                                         ; OPCODE_NOP
00000c7: 0a                                         ; OPCODE_NOP
00000c8: 0a                                         ; OPCODE_NOP
00000c9: 0a                                         ; OPCODE_NOP
00000ca: 0a                                         ; OPCODE_NOP
00000cb: 0a                                         ; OPCODE_NOP
00000cc: 0a                                         ; OPCODE_NOP
00000cd: 0a                                         ; OPCODE_NOP
00000ce: 0a                                         ; OPCODE_NOP
00000cf: 0a                                         ; OPCODE_NOP
00000d0: 0a                                         ; OPCODE_NOP
00000d1: 0a                                         ; OPCODE_NOP
00000d2: 0a                                         ; OPCODE_NOP
00000d3: 0a                                         ; OPCODE_NOP
00000d4: 0a                                         ; OPCODE_NOP
00000d5: 0a                                         ; OPCODE_NOP
00000d6: 0a                                         ; OPCODE_NOP
00000d7: 0a                                         ; OPCODE_NOP
00000d8: 0a                                         ; OPCODE_NOP
00000d9: 0a                                         ; OPCODE_NOP
00000da: 0a                                         ; OPCODE_NOP
00000db: 0a                                         ; OPCODE_NOP
00000dc: 0a                                         ; OPCODE_NOP
00000dd: 0a                                         ; OPCODE_NOP
00000de: 0a                                         ; OPCODE_NOP
00000df: 0a                                         ; OPCODE_NOP
00000e0: 0a                                         ; OPCODE_NOP
00000e1: 0a                                         ; OPCODE_NOP
00000e2: 0a                                         ; OPCODE_NOP
00000e3: 0a                                         ; OPCODE_NOP
00000e4: 0a                                         ; OPCODE_NOP
00000e5: 0a                                         ; OPCODE_NOP
00000e6: 0a                                         ; OPCODE_NOP
00000e7: 0a                                         ; OPCODE_NOP
00000e8: 0a                                         ; OPCODE_NOP
00000e9: 0a                                         ; OPCODE_NOP
00000ea: 0a                                         ; OPCODE_NOP
00000eb: 0a                                         ; OPCODE_NOP
00000ec: 0a                                         ; OPCODE_NOP
00000ed: 0a                                         ; OPCODE_NOP
00000ee: 0a                                         ; OPCODE_NOP
00000ef: 0a                                         ; OPCODE_NOP
00000f0: 0a                                         ; OPCODE_NOP
00000f1: 0a                                         ; OPCODE_NOP
00000f2: 0a                                         ; OPCODE_NOP
00000f3: 0a                                         ; OPCODE_NOP
00000f4: 0a                                         ; OPCODE_NOP
00000f5: 0a                                         ; OPCODE_NOP
00000f6: 0a                                         ; OPCODE_NOP
00000f7: 0a                                         ; OPCODE_NOP
00000f8: 0a                                         ; OPCODE_NOP
00000f9: 0a                                         ; OPCODE_NOP
00000fa: 0a                                         ; OPCODE_NOP
00000fb: 0a                                         ; OPCODE_NOP
00000fc: 0a                                         ; OPCODE_NOP
00000fd: 0a                                         ; OPCODE_NOP
00000fe: 0a                                         ; OPCODE_NOP
00000ff: 0a                                         ; OPCODE_NOP
0000100: 0a                                         ; OPCODE_NOP
0000101: 0a                                         ; OPCODE_NOP
0000102: 0a                                         ; OPCODE_NOP
0000103: 0a                                         ; OPCODE_NOP
0000104: 0a                                         ; OPCODE_NOP
0000105: 0a                                         ; OPCODE_NOP
0000106: 0a                                         ; OPCODE_NOP
0000107: 0a                                         ; OPCODE_NOP
0000108: 0a                                         ; OPCODE_NOP
0000109: 0a                                         ; OPCODE_NOP
000010a: 0a                                         ; OPCODE_NOP
000010b: 0a                                         ; OPCODE_NOP
000010c: 0a                                         ; OPCODE_NOP
000010d: 0a                                         ; OPCODE_NOP
000010e: 0a                                         ; OPCODE_NOP
000010f: 0a                                         ; OPCODE_NOP
0000110: 0a                                         ; OPCODE_NOP
0000111: 0a                                         ; OPCODE_NOP
0000112: 0a                                         ; OPCODE_NOP
0000113: 0a                                         ; OPCODE_NOP
0000114: 0a                                         ; OPCODE_NOP
0000115: 0a                                         ; OPCODE_NOP
0000116: 0a                                         ; OPCODE_NOP
0000117: 0a                                         ; OPCODE_NOP
0000118: 0a                                         ; OPCODE_NOP
0000119: 0a                                         ; OPCODE_NOP
000011a: 0a                                         ; OPCODE_NOP
000011b: 0a                                         ; OPCODE_NOP
000011c: 0a                                         ; OPCODE_NOP
000011d: 0a                                         ; OPCODE_NOP
000011e: 0a                                         ; OPCODE_NOP
000011f: 0a                                         ; OPCODE_NOP
0000120: 0a                                         ; OPCODE_NOP
0000121: 0a                                         ; OPCODE_NOP
0000122: 0a                                         ; OPCODE_NOP
0000123: 0a                                         ; OPCODE_NOP
0000124: 0a                                         ; OPCODE_NOP
0000125: 0a                                         ; OPCODE_NOP
0000126: 0a                                         ; OPCODE_NOP
0000127: 0a                                         ; OPCODE_NOP
0000128: 0a                                         ; OPCODE_NOP
0000129: 06                                         ; OPCODE_BR
000012a: 00                                         ; br arity
000012b: 01                                         ; break depth
000012c: 06                                         ; OPCODE_BR
000012d: 00                                         ; br arity
000012e: 00                                         ; break depth
000012f: 06                                         ; OPCODE_BR
0000130: 00                                         ; br arity
0000131: 01                                         ; break depth
0000132: 06                                         ; OPCODE_BR
0000133: 00                                         ; br arity
0000134: 00                                         ; break depth
0000135: 0f                                         ; OPCODE_END
0000136: 0f                                         ; OPCODE_END
; move data: [26, 137) -> [27, 138)
0000025: 9102                                       ; FIXUP func body size
; move data: [24, 138) -> [25, 139)
0000023: 9402                                       ; FIXUP section size
;; dump
0000000: 0061 736d 0c00 0000 0474 7970 6504 0140  
0000010: 0000 0866 756e 6374 696f 6e02 0100 0463  
0000020: 6f64 6594 0201 9102 0001 020a 0a0a 0a0a  
0000030: 0a0a 0a0a 0a0a 0a0a 0a0a 0a0a 0a0a 0a0a  
0000040: 0a0a 0a0a 0a0a 0a0a 0a0a 0a0a 0a0a 0a0a  
0000050: 0a0a 0a0a 0a0a 0a0a 0a0a 0a0a 0a0a 0a0a  
0000060: 0a0a 0a0a 0a0a 0a0a 0a0a 0a0a 0a0a 0a0a  
0000070: 0a0a 0a0a 0a0a 0a0a 0a0a 0a0a 0a0a 0a0a  
0000080: 0a0a 0a0a 0a0a 0a0a 0a0a 0a0a 0a0a 0a0a  
0000090: 0a0a 0a0a 0a0a 0a0a 0a0a 0a0a 0a0a 0a0a  
00000a0: 0a0a 0a0a 0a0a 0a0a 0a0a 0a0a 0a0a 0a0a  
00000b0: 0a0a 0a0a 0a0a 0a0a 0a0a 0a0a 0a0a 0a0a  
00000c0: 0a0a 0a0a 0a0a 0a0a 0a0a 0a0a 0a0a 0a0a  
00000d0: 0a0a 0a0a 0a0a 0a0a 0a0a 0a0a 0a0a 0a0a  
00000e0: 0a0a 0a0a 0a0a 0a0a 0a0a 0a0a 0a0a 0a0a  
00000f0: 0a0a 0a0a 0a0a 0a0a 0a0a 0a0a 0a0a 0a0a  
0000100: 0a0a 0a0a 0a0a 0a0a 0a0a 0a0a 0a0a 0a0a  
0000110: 0a0a 0a0a 0a0a 0a0a 0a0a 0a0a 0a0a 0a0a  
0000120: 0a0a 0a0a 0a0a 0a0a 0a0a 0a06 0001 0600  
0000130: 0006 0001 0600 000f 0f                   
;;; STDOUT ;;)
