;;; FLAGS: -dv
(module
  (memory 1
    (segment 0 "\00\01\02\03\04\05\06\07\08\09\0a")))
(;; STDOUT ;;;
0000000: 0061 736d                                  ; WASM_BINARY_MAGIC
0000004: 0a00 0000                                  ; WASM_BINARY_VERSION
; section "memory"
0000008: 00                                         ; section size (guess)
0000009: 06                                         ; string length
000000a: 6d65 6d6f 7279                             ; section id: "memory"
0000010: 01                                         ; min mem pages
0000011: 01                                         ; max mem pages
0000012: 00                                         ; export mem
0000008: 0a                                         ; FIXUP section size
; section "data_segments"
0000013: 00                                         ; section size (guess)
0000014: 0d                                         ; string length
0000015: 6461 7461 5f73 6567 6d65 6e74 73           ; section id: "data_segments"
0000022: 01                                         ; num data segments
; segment header 0
0000023: 00                                         ; segment address
0000024: 0b                                         ; segment size
; segment data 0
0000025: 0001 0203 0405 0607 0809 0a                ; segment data
0000013: 1c                                         ; FIXUP section size
; section "end"
0000030: 00                                         ; section size (guess)
0000031: 03                                         ; string length
0000032: 656e 64                                    ; section id: "end"
0000030: 04                                         ; FIXUP section size
;; dump
0000000: 0061 736d 0a00 0000 0a06 6d65 6d6f 7279  
0000010: 0101 001c 0d64 6174 615f 7365 676d 656e  
0000020: 7473 0100 0b00 0102 0304 0506 0708 090a  
0000030: 0403 656e 64                             
;;; STDOUT ;;)
