;;; FLAGS: -dv --multi-module
(module (memory 128))
(module (memory 256))
(module (memory 512))
(module (memory 1000))
(;; STDOUT ;;;
0000000: 07                                         ; mem size log 2
0000001: 01                                         ; export mem
0000002: 0000                                       ; num globals
0000004: 0000                                       ; num funcs
0000006: 0000                                       ; num data segments
; names
0000000: 0701 0000 0000 0000                      ........
0000000: 08                                         ; mem size log 2
0000001: 01                                         ; export mem
0000002: 0000                                       ; num globals
0000004: 0000                                       ; num funcs
0000006: 0000                                       ; num data segments
; names
0000000: 0801 0000 0000 0000                      ........
0000000: 09                                         ; mem size log 2
0000001: 01                                         ; export mem
0000002: 0000                                       ; num globals
0000004: 0000                                       ; num funcs
0000006: 0000                                       ; num data segments
; names
0000000: 0901 0000 0000 0000                      ........
0000000: 0a                                         ; mem size log 2
0000001: 01                                         ; export mem
0000002: 0000                                       ; num globals
0000004: 0000                                       ; num funcs
0000006: 0000                                       ; num data segments
; names
0000000: 0a01 0000 0000 0000                      ........
;;; STDOUT ;;)
