;;; FLAGS: -dv
(module
  (memory 100
    (segment 0 "\00\01\02\03\04\05\06\07\08\09\0a")))
(;; STDOUT ;;;
0000000: 00                                         ; WASM_SECTION_MEMORY
0000001: 07                                         ; min mem size log 2
0000002: 07                                         ; max mem size log 2
0000003: 01                                         ; export mem
0000004: 04                                         ; WASM_SECTION_DATA_SEGMENTS
0000005: 01                                         ; num data segments
; segment header 0
0000006: 0000 0000                                  ; segment address
000000a: 0000 0000                                  ; segment data offset
000000e: 0b00 0000                                  ; segment size
0000012: 01                                         ; segment init
0000013: 01                                         ; WASM_SECTION_SIGNATURES
0000014: 00                                         ; num signatures
0000015: 06                                         ; WASM_SECTION_END
; segment data 0
000000a: 1600 0000                                  ; FIXUP segment data offset
0000016: 0001 0203 0405 0607 0809 0a              ...........  ; segment data
; names
0000000: 0007 0701 0401 0000 0000 1600 0000 0b00  ................
0000010: 0000 0101 0006 0001 0203 0405 0607 0809  ................
0000020: 0a                                       .
;;; STDOUT ;;)
