;;; FLAGS: -dv
(module
  (memory 1)
  (func (result i32)
    (memory_size)))
(;; STDOUT ;;;
0000000: 0061 736d                                  ; WASM_BINARY_MAGIC
0000004: 0a00 0000                                  ; WASM_BINARY_VERSION
0000008: 00                                         ; WASM_BINARY_SECTION_MEMORY
0000009: 01                                         ; min mem pages
000000a: 01                                         ; max mem pages
000000b: 00                                         ; export mem
000000c: 01                                         ; WASM_BINARY_SECTION_SIGNATURES
000000d: 01                                         ; num signatures
; signature 0
000000e: 00                                         ; num params
000000f: 01                                         ; result_type
0000010: 02                                         ; WASM_BINARY_SECTION_FUNCTIONS
0000011: 01                                         ; num functions
; function 0
0000012: 00                                         ; func flags
0000013: 0000                                       ; func signature index
0000015: 0000                                       ; func body size
0000017: 00                                         ; local decl count
0000018: 3b                                         ; OPCODE_MEMORY_SIZE
0000015: 0200                                       ; FIXUP func body size
0000019: 06                                         ; WASM_BINARY_SECTION_END
;; dump
0000000: 0061 736d 0a00 0000 0001 0100 0101 0001  
0000010: 0201 0000 0002 0000 3b06                 
;;; STDOUT ;;)
