;;; FLAGS: -dv
(module
  (memory 1)
  (data (i32.const 10) "hello")
  (data (i32.const 20) "goodbye"))
(;; STDOUT ;;;
0000000: 0061 736d                                 ; WASM_BINARY_MAGIC
0000004: 0c00 0000                                 ; WASM_BINARY_VERSION
; section "MEMORY" (5)
0000008: 05                                        ; section code
0000009: 00                                        ; section size (guess)
000000a: 01                                        ; num memories
; memory 0
000000b: 00                                        ; memory flags
000000c: 01                                        ; memory initial pages
0000009: 03                                        ; FIXUP section size
; section "DATA" (11)
000000d: 0b                                        ; section code
000000e: 00                                        ; section size (guess)
000000f: 02                                        ; num data segments
; data segment header 0
0000010: 00                                        ; memory index
0000011: 10                                        ; i32.const
0000012: 0a                                        ; i32 literal
0000013: 0f                                        ; end
0000014: 05                                        ; data segment size
; data segment data 0
0000015: 6865 6c6c 6f                              ; data segment data
; data segment header 1
000001a: 00                                        ; memory index
000001b: 10                                        ; i32.const
000001c: 14                                        ; i32 literal
000001d: 0f                                        ; end
000001e: 07                                        ; data segment size
; data segment data 1
000001f: 676f 6f64 6279 65                         ; data segment data
000000e: 17                                        ; FIXUP section size
;; dump
0000000: 0061 736d 0c00 0000 0503 0100 010b 1702 
0000010: 0010 0a0f 0568 656c 6c6f 0010 140f 0767 
0000020: 6f6f 6462 7965                          
;;; STDOUT ;;)
