;;; FLAGS: -dv
(module
  (memory 100 (segment 10 "hello") (segment 20 "goodbye")))
(;; STDOUT ;;;
0000000: 0061 736d                                  ; WASM_BINARY_MAGIC
0000004: 0a00 0000                                  ; WASM_BINARY_VERSION
0000008: 00                                         ; WASM_BINARY_SECTION_MEMORY
0000009: 07                                         ; min mem size log 2
000000a: 07                                         ; max mem size log 2
000000b: 01                                         ; export mem
000000c: 04                                         ; WASM_BINARY_SECTION_DATA_SEGMENTS
000000d: 02                                         ; num data segments
; segment header 0
000000e: 0a00 0000                                  ; segment address
0000012: 0000 0000                                  ; segment data offset
0000016: 0500 0000                                  ; segment size
000001a: 01                                         ; segment init
; segment header 1
000001b: 1400 0000                                  ; segment address
000001f: 0000 0000                                  ; segment data offset
0000023: 0700 0000                                  ; segment size
0000027: 01                                         ; segment init
0000028: 06                                         ; WASM_BINARY_SECTION_END
; segment data 0
0000012: 2900 0000                                  ; FIXUP segment data offset
0000029: 6865 6c6c 6f                               ; segment data
; segment data 1
000001f: 2e00 0000                                  ; FIXUP segment data offset
000002e: 676f 6f64 6279 65                          ; segment data
;; dump
0000000: 0061 736d 0a00 0000 0007 0701 0402 0a00  
0000010: 0000 2900 0000 0500 0000 0114 0000 002e  
0000020: 0000 0007 0000 0001 0668 656c 6c6f 676f  
0000030: 6f64 6279 65                             
;;; STDOUT ;;)
