;;; FLAGS: -dv
(module
  (memory 100 (segment 10 "hello") (segment 20 "goodbye")))
(;; STDOUT ;;;
0000000: 00                                         ; WASM_SECTION_MEMORY
0000001: 07                                         ; min mem size log 2
0000002: 07                                         ; max mem size log 2
0000003: 01                                         ; export mem
0000004: 04                                         ; WASM_SECTION_DATA_SEGMENTS
0000005: 02                                         ; num data segments
; segment header 0
0000006: 0a00 0000                                  ; segment address
000000a: 0000 0000                                  ; segment data offset
000000e: 0500 0000                                  ; segment size
0000012: 01                                         ; segment init
; segment header 1
0000013: 1400 0000                                  ; segment address
0000017: 0000 0000                                  ; segment data offset
000001b: 0700 0000                                  ; segment size
000001f: 01                                         ; segment init
0000020: 06                                         ; WASM_SECTION_END
; segment data 0
000000a: 2100 0000                                  ; FIXUP segment data offset
0000021: 6865 6c6c 6f                               ; segment data
; segment data 1
0000017: 2600 0000                                  ; FIXUP segment data offset
0000026: 676f 6f64 6279 65                          ; segment data
;; dump
0000000: 0007 0701 0402 0a00 0000 2100 0000 0500  
0000010: 0000 0114 0000 0026 0000 0007 0000 0001  
0000020: 0668 656c 6c6f 676f 6f64 6279 65         
;;; STDOUT ;;)
