;;; FLAGS: -dv
(module
  (memory 1 (segment 10 "hello") (segment 20 "goodbye")))
(;; STDOUT ;;;
0000000: 0061 736d                                  ; WASM_BINARY_MAGIC
0000004: 0c00 0000                                  ; WASM_BINARY_VERSION
; section "memory"
0000008: 06                                         ; string length
0000009: 6d65 6d6f 7279                             ; section id: "memory"
000000f: 00                                         ; section size (guess)
0000010: 01                                         ; min mem pages
0000011: 01                                         ; max mem pages
0000012: 00                                         ; export mem
000000f: 03                                         ; FIXUP section size
; section "data"
0000013: 04                                         ; string length
0000014: 6461 7461                                  ; section id: "data"
0000018: 00                                         ; section size (guess)
0000019: 02                                         ; num data segments
; segment header 0
000001a: 0a                                         ; segment address
000001b: 05                                         ; segment size
; segment data 0
000001c: 6865 6c6c 6f                               ; segment data
; segment header 1
0000021: 14                                         ; segment address
0000022: 07                                         ; segment size
; segment data 1
0000023: 676f 6f64 6279 65                          ; segment data
0000018: 11                                         ; FIXUP section size
;; dump
0000000: 0061 736d 0c00 0000 066d 656d 6f72 7903  
0000010: 0101 0004 6461 7461 1102 0a05 6865 6c6c  
0000020: 6f14 0767 6f6f 6462 7965                 
;;; STDOUT ;;)
