;;; FLAGS: -dv
(module
  (memory 1 (segment 10 "hello") (segment 20 "goodbye")))
(;; STDOUT ;;;
0000000: 0061 736d                                  ; WASM_BINARY_MAGIC
0000004: 0a00 0000                                  ; WASM_BINARY_VERSION
0000008: 00                                         ; WASM_BINARY_SECTION_MEMORY
0000009: 01                                         ; min mem pages
000000a: 01                                         ; max mem pages
000000b: 01                                         ; export mem
000000c: 04                                         ; WASM_BINARY_SECTION_DATA_SEGMENTS
000000d: 02                                         ; num data segments
; segment header 0
000000e: 0a                                         ; segment address
000000f: 05                                         ; segment size
; segment data 0
0000010: 6865 6c6c 6f                               ; segment data
; segment header 1
0000015: 14                                         ; segment address
0000016: 07                                         ; segment size
; segment data 1
0000017: 676f 6f64 6279 65                          ; segment data
000001e: 06                                         ; WASM_BINARY_SECTION_END
;; dump
0000000: 0061 736d 0a00 0000 0001 0101 0402 0a05  
0000010: 6865 6c6c 6f14 0767 6f6f 6462 7965 06    
;;; STDOUT ;;)
