;;; FLAGS: -dv
(module (memory 1))
(;; STDOUT ;;;
0000000: 0061 736d                                  ; WASM_BINARY_MAGIC
0000004: 0c00 0000                                  ; WASM_BINARY_VERSION
; section "MEMORY" (5)
0000008: 05                                         ; section code
0000009: 00                                         ; section size (guess)
000000a: 01                                         ; num memories
; memory 0
000000b: 00                                         ; memory flags
000000c: 01                                         ; memory initial pages
0000009: 03                                         ; FIXUP section size
;; dump
0000000: 0061 736d 0c00 0000 0503 0100 01         
;;; STDOUT ;;)
