;;; FLAGS: -dv
(module
  (memory 1)
  (data (i32.const 10) "hello")
  (data (i32.const 20) "goodbye"))
(;; STDOUT ;;;
0000000: 0061 736d                                  ; WASM_BINARY_MAGIC
0000004: 0c00 0000                                  ; WASM_BINARY_VERSION
; section "memory"
0000008: 06                                         ; string length
0000009: 6d65 6d6f 7279                             ; section id: "memory"
000000f: 00                                         ; section size (guess)
0000010: 00                                         ; memory flags
0000011: 01                                         ; memory initial pages
000000f: 02                                         ; FIXUP section size
; section "data"
0000012: 04                                         ; string length
0000013: 6461 7461                                  ; section id: "data"
0000017: 00                                         ; section size (guess)
0000018: 02                                         ; num data segments
; data segment header 0
0000019: 10                                         ; OPCODE_I32_CONST
000001a: 0a                                         ; i32 literal
000001b: 0f                                         ; OPCODE_END
000001c: 05                                         ; data segment size
; data segment data 0
000001d: 6865 6c6c 6f                               ; data segment data
; data segment header 1
0000022: 10                                         ; OPCODE_I32_CONST
0000023: 14                                         ; i32 literal
0000024: 0f                                         ; OPCODE_END
0000025: 07                                         ; data segment size
; data segment data 1
0000026: 676f 6f64 6279 65                          ; data segment data
0000017: 15                                         ; FIXUP section size
;; dump
0000000: 0061 736d 0c00 0000 066d 656d 6f72 7902  
0000010: 0001 0464 6174 6115 0210 0a0f 0568 656c  
0000020: 6c6f 1014 0f07 676f 6f64 6279 65         
;;; STDOUT ;;)
