;;; FLAGS: -dv
(module
  (memory 1
    (segment 0 "\00\01\02\03\04\05\06\07\08\09\0a")))
(;; STDOUT ;;;
0000000: 0061 736d                                  ; WASM_BINARY_MAGIC
0000004: 0c00 0000                                  ; WASM_BINARY_VERSION
; section "memory"
0000008: 06                                         ; string length
0000009: 6d65 6d6f 7279                             ; section id: "memory"
000000f: 00                                         ; section size (guess)
0000010: 01                                         ; min mem pages
0000011: 01                                         ; max mem pages
0000012: 00                                         ; export mem
000000f: 03                                         ; FIXUP section size
; section "data"
0000013: 04                                         ; string length
0000014: 6461 7461                                  ; section id: "data"
0000018: 00                                         ; section size (guess)
0000019: 01                                         ; num data segments
; segment header 0
000001a: 00                                         ; segment address
000001b: 0b                                         ; segment size
; segment data 0
000001c: 0001 0203 0405 0607 0809 0a                ; segment data
0000018: 0e                                         ; FIXUP section size
;; dump
0000000: 0061 736d 0c00 0000 066d 656d 6f72 7903  
0000010: 0101 0004 6461 7461 0e01 000b 0001 0203  
0000020: 0405 0607 0809 0a                        
;;; STDOUT ;;)
