;;; FLAGS: -dv
(module
  (memory 1)
  (func (result i32)
    (memory_size)))
(;; STDOUT ;;;
0000000: 0061 736d                                  ; WASM_BINARY_MAGIC
0000004: 0a00 0000                                  ; WASM_BINARY_VERSION
; section "memory"
0000008: 00                                         ; section size (guess)
0000009: 06                                         ; string length
000000a: 6d65 6d6f 7279                             ; section id: "memory"
0000010: 01                                         ; min mem pages
0000011: 01                                         ; max mem pages
0000012: 00                                         ; export mem
0000008: 0a                                         ; FIXUP section size
; section "signatures"
0000013: 00                                         ; section size (guess)
0000014: 0a                                         ; string length
0000015: 7369 676e 6174 7572 6573                   ; section id: "signatures"
000001f: 01                                         ; num signatures
; signature 0
0000020: 00                                         ; num params
0000021: 01                                         ; result_type
0000013: 0e                                         ; FIXUP section size
; section "function_signatures"
0000022: 00                                         ; section size (guess)
0000023: 13                                         ; string length
0000024: 6675 6e63 7469 6f6e 5f73 6967 6e61 7475  
0000034: 7265 73                                    ; section id: "function_signatures"
0000037: 01                                         ; num functions
0000038: 00                                         ; function 0 signature index
0000022: 16                                         ; FIXUP section size
; section "function_bodies"
0000039: 00                                         ; section size (guess)
000003a: 0f                                         ; string length
000003b: 6675 6e63 7469 6f6e 5f62 6f64 6965 73      ; section id: "function_bodies"
000004a: 01                                         ; num functions
; function body 0
000004b: 00                                         ; func body size (guess)
000004c: 00                                         ; local decl count
000004d: 3b                                         ; OPCODE_MEMORY_SIZE
000004b: 02                                         ; FIXUP func body size
0000039: 14                                         ; FIXUP section size
; section "end"
000004e: 00                                         ; section size (guess)
000004f: 03                                         ; string length
0000050: 656e 64                                    ; section id: "end"
000004e: 04                                         ; FIXUP section size
;; dump
0000000: 0061 736d 0a00 0000 0a06 6d65 6d6f 7279  
0000010: 0101 000e 0a73 6967 6e61 7475 7265 7301  
0000020: 0001 1613 6675 6e63 7469 6f6e 5f73 6967  
0000030: 6e61 7475 7265 7301 0014 0f66 756e 6374  
0000040: 696f 6e5f 626f 6469 6573 0102 003b 0403  
0000050: 656e 64                                  
;;; STDOUT ;;)
