;;; FLAGS: -dv
(module
  (memory 1)
  (func (result i32)
    (memory_size)))
(;; STDOUT ;;;
0000000: 0061 736d                                  ; WASM_BINARY_MAGIC
0000004: 0a00 0000                                  ; WASM_BINARY_VERSION
; section "signatures"
0000008: 00                                         ; section size (guess)
0000009: 0a                                         ; string length
000000a: 7369 676e 6174 7572 6573                   ; section id: "signatures"
0000014: 01                                         ; num signatures
; signature 0
0000015: 00                                         ; num params
0000016: 01                                         ; result_type
0000008: 0e                                         ; FIXUP section size
; section "function_signatures"
0000017: 00                                         ; section size (guess)
0000018: 13                                         ; string length
0000019: 6675 6e63 7469 6f6e 5f73 6967 6e61 7475  
0000029: 7265 73                                    ; section id: "function_signatures"
000002c: 01                                         ; num functions
000002d: 00                                         ; function 0 signature index
0000017: 16                                         ; FIXUP section size
; section "memory"
000002e: 00                                         ; section size (guess)
000002f: 06                                         ; string length
0000030: 6d65 6d6f 7279                             ; section id: "memory"
0000036: 01                                         ; min mem pages
0000037: 01                                         ; max mem pages
0000038: 00                                         ; export mem
000002e: 0a                                         ; FIXUP section size
; section "function_bodies"
0000039: 00                                         ; section size (guess)
000003a: 0f                                         ; string length
000003b: 6675 6e63 7469 6f6e 5f62 6f64 6965 73      ; section id: "function_bodies"
000004a: 01                                         ; num functions
; function body 0
000004b: 00                                         ; func body size (guess)
000004c: 00                                         ; local decl count
000004d: 3b                                         ; OPCODE_MEMORY_SIZE
000004b: 02                                         ; FIXUP func body size
0000039: 14                                         ; FIXUP section size
; section "end"
000004e: 00                                         ; section size (guess)
000004f: 03                                         ; string length
0000050: 656e 64                                    ; section id: "end"
000004e: 04                                         ; FIXUP section size
;; dump
0000000: 0061 736d 0a00 0000 0e0a 7369 676e 6174  
0000010: 7572 6573 0100 0116 1366 756e 6374 696f  
0000020: 6e5f 7369 676e 6174 7572 6573 0100 0a06  
0000030: 6d65 6d6f 7279 0101 0014 0f66 756e 6374  
0000040: 696f 6e5f 626f 6469 6573 0102 003b 0403  
0000050: 656e 64                                  
;;; STDOUT ;;)
