;;; FLAGS: -dv --no-remap-locals
(module
  (func
    ;; compare with test/dump/getlocal.txt
    (local f64 f32 i64 i32 i32 f32 f64 i64)
    (get_local 0)
    (get_local 1)
    (get_local 2)
    (get_local 3)
    (get_local 4)
    (get_local 5)
    (get_local 6)
    (get_local 7)))
(;; STDOUT ;;;
0000000: 0061 736d                                  ; WASM_BINARY_MAGIC
0000004: 0a00 0000                                  ; WASM_BINARY_VERSION
; section "signatures"
0000008: 00                                         ; section size (guess)
0000009: 0a                                         ; string length
000000a: 7369 676e 6174 7572 6573                   ; section id: "signatures"
0000014: 01                                         ; num signatures
; signature 0
0000015: 00                                         ; num params
0000016: 00                                         ; result_type
0000008: 0e                                         ; FIXUP section size
; section "function_signatures"
0000017: 00                                         ; section size (guess)
0000018: 13                                         ; string length
0000019: 6675 6e63 7469 6f6e 5f73 6967 6e61 7475  
0000029: 7265 73                                    ; section id: "function_signatures"
000002c: 01                                         ; num functions
000002d: 00                                         ; function 0 signature index
0000017: 16                                         ; FIXUP section size
; section "function_bodies"
000002e: 00                                         ; section size (guess)
000002f: 0f                                         ; string length
0000030: 6675 6e63 7469 6f6e 5f62 6f64 6965 73      ; section id: "function_bodies"
000003f: 01                                         ; num functions
; function body 0
0000040: 00                                         ; func body size (guess)
0000041: 07                                         ; local decl count
0000042: 01                                         ; local type count
0000043: 04                                         ; WASM_TYPE_F64
0000044: 01                                         ; local type count
0000045: 03                                         ; WASM_TYPE_F32
0000046: 01                                         ; local type count
0000047: 02                                         ; WASM_TYPE_I64
0000048: 02                                         ; local type count
0000049: 01                                         ; WASM_TYPE_I32
000004a: 01                                         ; local type count
000004b: 03                                         ; WASM_TYPE_F32
000004c: 01                                         ; local type count
000004d: 04                                         ; WASM_TYPE_F64
000004e: 01                                         ; local type count
000004f: 02                                         ; WASM_TYPE_I64
0000050: 0e                                         ; OPCODE_GET_LOCAL
0000051: 00                                         ; remapped local index
0000052: 0e                                         ; OPCODE_GET_LOCAL
0000053: 01                                         ; remapped local index
0000054: 0e                                         ; OPCODE_GET_LOCAL
0000055: 02                                         ; remapped local index
0000056: 0e                                         ; OPCODE_GET_LOCAL
0000057: 03                                         ; remapped local index
0000058: 0e                                         ; OPCODE_GET_LOCAL
0000059: 04                                         ; remapped local index
000005a: 0e                                         ; OPCODE_GET_LOCAL
000005b: 05                                         ; remapped local index
000005c: 0e                                         ; OPCODE_GET_LOCAL
000005d: 06                                         ; remapped local index
000005e: 0e                                         ; OPCODE_GET_LOCAL
000005f: 07                                         ; remapped local index
0000040: 1f                                         ; FIXUP func body size
000002e: 31                                         ; FIXUP section size
; section "end"
0000060: 00                                         ; section size (guess)
0000061: 03                                         ; string length
0000062: 656e 64                                    ; section id: "end"
0000060: 04                                         ; FIXUP section size
;; dump
0000000: 0061 736d 0a00 0000 0e0a 7369 676e 6174  
0000010: 7572 6573 0100 0016 1366 756e 6374 696f  
0000020: 6e5f 7369 676e 6174 7572 6573 0100 310f  
0000030: 6675 6e63 7469 6f6e 5f62 6f64 6965 7301  
0000040: 1f07 0104 0103 0102 0201 0103 0104 0102  
0000050: 0e00 0e01 0e02 0e03 0e04 0e05 0e06 0e07  
0000060: 0403 656e 64                             
;;; STDOUT ;;)
