;;; FLAGS: -dv
(module
  (func (nop)))
(;; STDOUT ;;;
0000000: 01                                         ; WASM_BINARY_SECTION_SIGNATURES
0000001: 01                                         ; num signatures
; signature 0
0000002: 00                                         ; num params
0000003: 00                                         ; result_type
0000004: 02                                         ; WASM_BINARY_SECTION_FUNCTIONS
0000005: 01                                         ; num functions
; function 0
0000006: 00                                         ; func flags
0000007: 0000                                       ; func signature index
0000009: 0000                                       ; func body size
000000b: 00                                         ; OPCODE_NOP
0000009: 0100                                       ; FIXUP func body size
000000c: 06                                         ; WASM_BINARY_SECTION_END
;; dump
0000000: 0101 0000 0201 0000 0001 0000 06         
;;; STDOUT ;;)
