;;; FLAGS: -dv
(module
  (func (param i32 i64 f32 f64)))
(;; STDOUT ;;;
0000000: 0061 736d                                  ; WASM_BINARY_MAGIC
0000004: 0a00 0000                                  ; WASM_BINARY_VERSION
; section "signatures"
0000008: 00                                         ; section size (guess)
0000009: 0a                                         ; string length
000000a: 7369 676e 6174 7572 6573                   ; section id: "signatures"
0000014: 01                                         ; num signatures
; signature 0
0000015: 04                                         ; num params
0000016: 00                                         ; result_type
0000017: 01                                         ; param type
0000018: 02                                         ; param type
0000019: 03                                         ; param type
000001a: 04                                         ; param type
0000008: 12                                         ; FIXUP section size
; section "function_signatures"
000001b: 00                                         ; section size (guess)
000001c: 13                                         ; string length
000001d: 6675 6e63 7469 6f6e 5f73 6967 6e61 7475  
000002d: 7265 73                                    ; section id: "function_signatures"
0000030: 01                                         ; num functions
0000031: 00                                         ; function 0 signature index
000001b: 16                                         ; FIXUP section size
; section "function_bodies"
0000032: 00                                         ; section size (guess)
0000033: 0f                                         ; string length
0000034: 6675 6e63 7469 6f6e 5f62 6f64 6965 73      ; section id: "function_bodies"
0000043: 01                                         ; num functions
; function body 0
0000044: 00                                         ; func body size (guess)
0000045: 00                                         ; local decl count
0000044: 01                                         ; FIXUP func body size
0000032: 13                                         ; FIXUP section size
;; dump
0000000: 0061 736d 0a00 0000 120a 7369 676e 6174  
0000010: 7572 6573 0104 0001 0203 0416 1366 756e  
0000020: 6374 696f 6e5f 7369 676e 6174 7572 6573  
0000030: 0100 130f 6675 6e63 7469 6f6e 5f62 6f64  
0000040: 6965 7301 0100                           
;;; STDOUT ;;)
