;;; FLAGS: -dv
(module
  (func (param i32 i64 f32 f64)))
(;; STDOUT ;;;
0000000: 0061 736d                                  ; WASM_BINARY_MAGIC
0000004: 0a00 0000                                  ; WASM_BINARY_VERSION
0000008: 01                                         ; WASM_BINARY_SECTION_SIGNATURES
0000009: 01                                         ; num signatures
; signature 0
000000a: 04                                         ; num params
000000b: 00                                         ; result_type
000000c: 01                                         ; param type
000000d: 02                                         ; param type
000000e: 03                                         ; param type
000000f: 04                                         ; param type
0000010: 0a                                         ; WASM_BINARY_SECTION_FUNCTION_SIGNATURES
0000011: 01                                         ; num functions
0000012: 00                                         ; function 0 signature index
0000013: 0b                                         ; WASM_BINARY_SECTION_FUNCTION_BODIES
0000014: 01                                         ; num functions
; function body 0
0000015: 00                                         ; func body size (guess)
0000016: 00                                         ; local decl count
0000015: 01                                         ; FIXUP func body size
0000017: 06                                         ; WASM_BINARY_SECTION_END
;; dump
0000000: 0061 736d 0a00 0000 0101 0400 0102 0304  
0000010: 0a01 000b 0101 0006                      
;;; STDOUT ;;)
