;;; FLAGS: -dv
(module
  (func (param i32 i64 f32 f64)))
(;; STDOUT ;;;
0000000: 0061 736d                                  ; WASM_BINARY_MAGIC
0000004: 0b00 0000                                  ; WASM_BINARY_VERSION
; section "type"
0000008: 04                                         ; string length
0000009: 7479 7065                                  ; section id: "type"
000000d: 00                                         ; section size (guess)
000000e: 01                                         ; num types
; type 0
000000f: 40                                         ; function form
0000010: 04                                         ; num params
0000011: 01                                         ; param type
0000012: 02                                         ; param type
0000013: 03                                         ; param type
0000014: 04                                         ; param type
0000015: 00                                         ; num results
000000d: 08                                         ; FIXUP section size
; section "function"
0000016: 08                                         ; string length
0000017: 6675 6e63 7469 6f6e                        ; section id: "function"
000001f: 00                                         ; section size (guess)
0000020: 01                                         ; num functions
0000021: 00                                         ; function 0 signature index
000001f: 02                                         ; FIXUP section size
; section "code"
0000022: 04                                         ; string length
0000023: 636f 6465                                  ; section id: "code"
0000027: 00                                         ; section size (guess)
0000028: 01                                         ; num functions
; function body 0
0000029: 00                                         ; func body size (guess)
000002a: 00                                         ; local decl count
0000029: 01                                         ; FIXUP func body size
0000027: 03                                         ; FIXUP section size
;; dump
0000000: 0061 736d 0b00 0000 0474 7970 6508 0140  
0000010: 0401 0203 0400 0866 756e 6374 696f 6e02  
0000020: 0100 0463 6f64 6503 0101 00              
;;; STDOUT ;;)
