;;; FLAGS: -dv
(module
  (func (param i32 i64 f32 f64)))
(;; STDOUT ;;;
0000000: 01                                         ; WASM_SECTION_SIGNATURES
0000001: 01                                         ; num signatures
; signature 0
0000002: 04                                         ; num params
0000003: 00                                         ; result_type
0000004: 01                                         ; param type
0000005: 02                                         ; param type
0000006: 03                                         ; param type
0000007: 04                                         ; param type
0000008: 02                                         ; WASM_SECTION_FUNCTIONS
0000009: 01                                         ; num functions
; function 0
000000a: 00                                         ; func flags
000000b: 0000                                       ; func signature index
000000d: 0000                                       ; func body size
000000d: 0000                                       ; FIXUP func body size
000000f: 06                                         ; WASM_SECTION_END
;;; STDOUT ;;)
