;;; FLAGS: -dv
(module
  (func (result i32) (i32.const 0))
  (func (result i64) (i64.const 0))
  (func (result f32) (f32.const 0))
  (func (result f64) (f64.const 0)))
(;; STDOUT ;;;
0000000: 0061 736d                                  ; WASM_BINARY_MAGIC
0000004: 0a00 0000                                  ; WASM_BINARY_VERSION
0000008: 01                                         ; WASM_BINARY_SECTION_SIGNATURES
0000009: 04                                         ; num signatures
; signature 0
000000a: 00                                         ; num params
000000b: 01                                         ; result_type
; signature 1
000000c: 00                                         ; num params
000000d: 02                                         ; result_type
; signature 2
000000e: 00                                         ; num params
000000f: 03                                         ; result_type
; signature 3
0000010: 00                                         ; num params
0000011: 04                                         ; result_type
0000012: 02                                         ; WASM_BINARY_SECTION_FUNCTIONS
0000013: 04                                         ; num functions
; function 0
0000014: 00                                         ; func flags
0000015: 0000                                       ; func signature index
0000017: 0000                                       ; func body size
0000019: 00                                         ; local decl count
000001a: 0a                                         ; OPCODE_I32_CONST
000001b: 00                                         ; i32 literal
0000017: 0300                                       ; FIXUP func body size
; function 1
000001c: 00                                         ; func flags
000001d: 0100                                       ; func signature index
000001f: 0000                                       ; func body size
0000021: 00                                         ; local decl count
0000022: 0b                                         ; OPCODE_I64_CONST
0000023: 00                                         ; i64 literal
000001f: 0300                                       ; FIXUP func body size
; function 2
0000024: 00                                         ; func flags
0000025: 0200                                       ; func signature index
0000027: 0000                                       ; func body size
0000029: 00                                         ; local decl count
000002a: 0d                                         ; OPCODE_F32_CONST
000002b: 0000 0000                                  ; f32 literal
0000027: 0600                                       ; FIXUP func body size
; function 3
000002f: 00                                         ; func flags
0000030: 0300                                       ; func signature index
0000032: 0000                                       ; func body size
0000034: 00                                         ; local decl count
0000035: 0c                                         ; OPCODE_F64_CONST
0000036: 0000 0000 0000 0000                        ; f64 literal
0000032: 0a00                                       ; FIXUP func body size
000003e: 06                                         ; WASM_BINARY_SECTION_END
;; dump
0000000: 0061 736d 0a00 0000 0104 0001 0002 0003  
0000010: 0004 0204 0000 0003 0000 0a00 0001 0003  
0000020: 0000 0b00 0002 0006 0000 0d00 0000 0000  
0000030: 0300 0a00 000c 0000 0000 0000 0000 06    
;;; STDOUT ;;)
