;;; FLAGS: -dv
(module
  (func (result i32) (i32.const 0))
  (func (result i64) (i64.const 0))
  (func (result f32) (f32.const 0))
  (func (result f64) (f64.const 0)))
(;; STDOUT ;;;
0000000: 0061 736d                                  ; WASM_BINARY_MAGIC
0000004: 0a00 0000                                  ; WASM_BINARY_VERSION
0000008: 01                                         ; WASM_BINARY_SECTION_SIGNATURES
0000009: 04                                         ; num signatures
; signature 0
000000a: 00                                         ; num params
000000b: 01                                         ; result_type
; signature 1
000000c: 00                                         ; num params
000000d: 02                                         ; result_type
; signature 2
000000e: 00                                         ; num params
000000f: 03                                         ; result_type
; signature 3
0000010: 00                                         ; num params
0000011: 04                                         ; result_type
0000012: 02                                         ; WASM_BINARY_SECTION_FUNCTIONS
0000013: 04                                         ; num functions
; function 0
0000014: 00                                         ; func flags
0000015: 0000                                       ; func signature index
0000017: 0000                                       ; func body size
0000019: 0a                                         ; OPCODE_I32_CONST
000001a: 00                                         ; i32 literal
0000017: 0200                                       ; FIXUP func body size
; function 1
000001b: 00                                         ; func flags
000001c: 0100                                       ; func signature index
000001e: 0000                                       ; func body size
0000020: 0b                                         ; OPCODE_I64_CONST
0000021: 00                                         ; i64 literal
000001e: 0200                                       ; FIXUP func body size
; function 2
0000022: 00                                         ; func flags
0000023: 0200                                       ; func signature index
0000025: 0000                                       ; func body size
0000027: 0d                                         ; OPCODE_F32_CONST
0000028: 0000 0000                                  ; f32 literal
0000025: 0500                                       ; FIXUP func body size
; function 3
000002c: 00                                         ; func flags
000002d: 0300                                       ; func signature index
000002f: 0000                                       ; func body size
0000031: 0c                                         ; OPCODE_F64_CONST
0000032: 0000 0000 0000 0000                        ; f64 literal
000002f: 0900                                       ; FIXUP func body size
000003a: 06                                         ; WASM_BINARY_SECTION_END
;; dump
0000000: 0061 736d 0a00 0000 0104 0001 0002 0003  
0000010: 0004 0204 0000 0002 000a 0000 0100 0200  
0000020: 0b00 0002 0005 000d 0000 0000 0003 0009  
0000030: 000c 0000 0000 0000 0000 06              
;;; STDOUT ;;)
