;;; FLAGS: -dv
(module
  (func (result i32) (i32.const 0))
  (func (result i64) (i64.const 0))
  (func (result f32) (f32.const 0))
  (func (result f64) (f64.const 0)))
(;; STDOUT ;;;
0000000: 0061 736d                                  ; WASM_BINARY_MAGIC
0000004: 0a00 0000                                  ; WASM_BINARY_VERSION
0000008: 01                                         ; WASM_BINARY_SECTION_SIGNATURES
0000009: 04                                         ; num signatures
; signature 0
000000a: 00                                         ; num params
000000b: 01                                         ; result_type
; signature 1
000000c: 00                                         ; num params
000000d: 02                                         ; result_type
; signature 2
000000e: 00                                         ; num params
000000f: 03                                         ; result_type
; signature 3
0000010: 00                                         ; num params
0000011: 04                                         ; result_type
0000012: 0a                                         ; WASM_BINARY_SECTION_FUNCTION_SIGNATURES
0000013: 04                                         ; num functions
0000014: 00                                         ; function 0 signature index
0000015: 01                                         ; function 1 signature index
0000016: 02                                         ; function 2 signature index
0000017: 03                                         ; function 3 signature index
0000018: 0b                                         ; WASM_BINARY_SECTION_FUNCTION_BODIES
0000019: 04                                         ; num functions
; function body 0
000001a: 00                                         ; func body size (guess)
000001b: 00                                         ; local decl count
000001c: 0a                                         ; OPCODE_I32_CONST
000001d: 00                                         ; i32 literal
000001a: 03                                         ; FIXUP func body size
; function body 1
000001e: 00                                         ; func body size (guess)
000001f: 00                                         ; local decl count
0000020: 0b                                         ; OPCODE_I64_CONST
0000021: 00                                         ; i64 literal
000001e: 03                                         ; FIXUP func body size
; function body 2
0000022: 00                                         ; func body size (guess)
0000023: 00                                         ; local decl count
0000024: 0d                                         ; OPCODE_F32_CONST
0000025: 0000 0000                                  ; f32 literal
0000022: 06                                         ; FIXUP func body size
; function body 3
0000029: 00                                         ; func body size (guess)
000002a: 00                                         ; local decl count
000002b: 0c                                         ; OPCODE_F64_CONST
000002c: 0000 0000 0000 0000                        ; f64 literal
0000029: 0a                                         ; FIXUP func body size
0000034: 06                                         ; WASM_BINARY_SECTION_END
;; dump
0000000: 0061 736d 0a00 0000 0104 0001 0002 0003  
0000010: 0004 0a04 0001 0203 0b04 0300 0a00 0300  
0000020: 0b00 0600 0d00 0000 000a 000c 0000 0000  
0000030: 0000 0000 06                             
;;; STDOUT ;;)
