;;; FLAGS: -dv
(module
  (func (result i32) (i32.const 0))
  (func (result i64) (i64.const 0))
  (func (result f32) (f32.const 0))
  (func (result f64) (f64.const 0)))
(;; STDOUT ;;;
0000000: 0061 736d                                  ; WASM_BINARY_MAGIC
0000004: 0a00 0000                                  ; WASM_BINARY_VERSION
; section "signatures"
0000008: 00                                         ; section size (guess)
0000009: 0a                                         ; string length
000000a: 7369 676e 6174 7572 6573                   ; section id: "signatures"
0000014: 04                                         ; num signatures
; signature 0
0000015: 00                                         ; num params
0000016: 01                                         ; result_type
; signature 1
0000017: 00                                         ; num params
0000018: 02                                         ; result_type
; signature 2
0000019: 00                                         ; num params
000001a: 03                                         ; result_type
; signature 3
000001b: 00                                         ; num params
000001c: 04                                         ; result_type
0000008: 14                                         ; FIXUP section size
; section "function_signatures"
000001d: 00                                         ; section size (guess)
000001e: 13                                         ; string length
000001f: 6675 6e63 7469 6f6e 5f73 6967 6e61 7475  
000002f: 7265 73                                    ; section id: "function_signatures"
0000032: 04                                         ; num functions
0000033: 00                                         ; function 0 signature index
0000034: 01                                         ; function 1 signature index
0000035: 02                                         ; function 2 signature index
0000036: 03                                         ; function 3 signature index
000001d: 19                                         ; FIXUP section size
; section "function_bodies"
0000037: 00                                         ; section size (guess)
0000038: 0f                                         ; string length
0000039: 6675 6e63 7469 6f6e 5f62 6f64 6965 73      ; section id: "function_bodies"
0000048: 04                                         ; num functions
; function body 0
0000049: 00                                         ; func body size (guess)
000004a: 00                                         ; local decl count
000004b: 0a                                         ; OPCODE_I32_CONST
000004c: 00                                         ; i32 literal
0000049: 03                                         ; FIXUP func body size
; function body 1
000004d: 00                                         ; func body size (guess)
000004e: 00                                         ; local decl count
000004f: 0b                                         ; OPCODE_I64_CONST
0000050: 00                                         ; i64 literal
000004d: 03                                         ; FIXUP func body size
; function body 2
0000051: 00                                         ; func body size (guess)
0000052: 00                                         ; local decl count
0000053: 0d                                         ; OPCODE_F32_CONST
0000054: 0000 0000                                  ; f32 literal
0000051: 06                                         ; FIXUP func body size
; function body 3
0000058: 00                                         ; func body size (guess)
0000059: 00                                         ; local decl count
000005a: 0c                                         ; OPCODE_F64_CONST
000005b: 0000 0000 0000 0000                        ; f64 literal
0000058: 0a                                         ; FIXUP func body size
0000037: 2b                                         ; FIXUP section size
; section "end"
0000063: 00                                         ; section size (guess)
0000064: 03                                         ; string length
0000065: 656e 64                                    ; section id: "end"
0000063: 04                                         ; FIXUP section size
;; dump
0000000: 0061 736d 0a00 0000 140a 7369 676e 6174  
0000010: 7572 6573 0400 0100 0200 0300 0419 1366  
0000020: 756e 6374 696f 6e5f 7369 676e 6174 7572  
0000030: 6573 0400 0102 032b 0f66 756e 6374 696f  
0000040: 6e5f 626f 6469 6573 0403 000a 0003 000b  
0000050: 0006 000d 0000 0000 0a00 0c00 0000 0000  
0000060: 0000 0004 0365 6e64                      
;;; STDOUT ;;)
