;;; FLAGS: -dv
(module
  (func (result i32) (i32.const 0))
  (func (result i64) (i64.const 0))
  (func (result f32) (f32.const 0))
  (func (result f64) (f64.const 0)))
(;; STDOUT ;;;
0000000: 01                                         ; WASM_SECTION_SIGNATURES
0000001: 04                                         ; num signatures
; signature 0
0000002: 00                                         ; num params
0000003: 01                                         ; result_type
; signature 1
0000004: 00                                         ; num params
0000005: 02                                         ; result_type
; signature 2
0000006: 00                                         ; num params
0000007: 03                                         ; result_type
; signature 3
0000008: 00                                         ; num params
0000009: 04                                         ; result_type
000000a: 02                                         ; WASM_SECTION_FUNCTIONS
000000b: 04                                         ; num functions
; function 0
000000c: 00                                         ; func flags
000000d: 0000                                       ; func signature index
000000f: 0000                                       ; func body size
0000011: 09                                         ; OPCODE_I8_CONST
0000012: 00                                         ; u8 literal
000000f: 0200                                       ; FIXUP func body size
; function 1
0000013: 00                                         ; func flags
0000014: 0100                                       ; func signature index
0000016: 0000                                       ; func body size
0000018: 0b                                         ; OPCODE_I64_CONST
0000019: 0000 0000 0000 0000                        ; u64 literal
0000016: 0900                                       ; FIXUP func body size
; function 2
0000021: 00                                         ; func flags
0000022: 0200                                       ; func signature index
0000024: 0000                                       ; func body size
0000026: 0d                                         ; OPCODE_F32_CONST
0000027: 0000 0000                                  ; f32 literal
0000024: 0500                                       ; FIXUP func body size
; function 3
000002b: 00                                         ; func flags
000002c: 0300                                       ; func signature index
000002e: 0000                                       ; func body size
0000030: 0c                                         ; OPCODE_F64_CONST
0000031: 0000 0000 0000 0000                        ; f64 literal
000002e: 0900                                       ; FIXUP func body size
0000039: 06                                         ; WASM_SECTION_END
;; dump
0000000: 0104 0001 0002 0003 0004 0204 0000 0002  
0000010: 0009 0000 0100 0900 0b00 0000 0000 0000  
0000020: 0000 0200 0500 0d00 0000 0000 0300 0900  
0000030: 0c00 0000 0000 0000 0006                 
;;; STDOUT ;;)
