;;; TOOL: run-objdump
;;; ARGS0: -v --enable-exceptions
(module
  (event $e1)
  (func
    try
    catch
      rethrow
    end))
(;; STDOUT ;;;
0000000: 0061 736d                                 ; WASM_BINARY_MAGIC
0000004: 0100 0000                                 ; WASM_BINARY_VERSION
; section "Type" (1)
0000008: 01                                        ; section code
0000009: 00                                        ; section size (guess)
000000a: 01                                        ; num types
; type 0
000000b: 60                                        ; func
000000c: 00                                        ; num params
000000d: 00                                        ; num results
0000009: 04                                        ; FIXUP section size
; section "Function" (3)
000000e: 03                                        ; section code
000000f: 00                                        ; section size (guess)
0000010: 01                                        ; num functions
0000011: 00                                        ; function 0 signature index
000000f: 02                                        ; FIXUP section size
; section "Event" (13)
0000012: 0d                                        ; section code
0000013: 00                                        ; section size (guess)
0000014: 01                                        ; event count
0000015: 00                                        ; event type count
0000013: 02                                        ; FIXUP section size
; section "Code" (10)
0000016: 0a                                        ; section code
0000017: 00                                        ; section size (guess)
0000018: 01                                        ; num functions
; function body 0
0000019: 00                                        ; func body size (guess)
000001a: 00                                        ; local decl count
000001b: 06                                        ; try
000001c: 40                                        ; void
000001d: 07                                        ; catch
000001e: 09                                        ; rethrow
000001f: 0b                                        ; end
0000020: 0b                                        ; end
0000019: 07                                        ; FIXUP func body size
0000017: 09                                        ; FIXUP section size

rethrow.wasm:	file format wasm 0x1

Code Disassembly:

00001a func[0]:
 00001b: 06 40                      | try
 00001d: 07                         | catch
 00001e: 09                         |   rethrow
 00001f: 0b                         | end
 000020: 0b                         | end
;;; STDOUT ;;)
