;;; FLAGS: -dv
(module
  (func (result i32)
    (return (i32.const 42)))
  (func (return)))
(;; STDOUT ;;;
0000000: 0061 736d                                  ; WASM_BINARY_MAGIC
0000004: 0a00 0000                                  ; WASM_BINARY_VERSION
0000008: 01                                         ; WASM_BINARY_SECTION_SIGNATURES
0000009: 02                                         ; num signatures
; signature 0
000000a: 00                                         ; num params
000000b: 01                                         ; result_type
; signature 1
000000c: 00                                         ; num params
000000d: 00                                         ; result_type
000000e: 0a                                         ; WASM_BINARY_SECTION_FUNCTION_SIGNATURES
000000f: 02                                         ; num functions
0000010: 00                                         ; function 0 signature index
0000011: 01                                         ; function 1 signature index
0000012: 0b                                         ; WASM_BINARY_SECTION_FUNCTION_BODIES
0000013: 02                                         ; num functions
; function body 0
0000014: 00                                         ; func body size (guess)
0000015: 00                                         ; local decl count
0000016: 14                                         ; OPCODE_RETURN
0000017: 0a                                         ; OPCODE_I32_CONST
0000018: 2a                                         ; i32 literal
0000014: 04                                         ; FIXUP func body size
; function body 1
0000019: 00                                         ; func body size (guess)
000001a: 00                                         ; local decl count
000001b: 14                                         ; OPCODE_RETURN
0000019: 02                                         ; FIXUP func body size
000001c: 06                                         ; WASM_BINARY_SECTION_END
;; dump
0000000: 0061 736d 0a00 0000 0102 0001 0000 0a02  
0000010: 0001 0b02 0400 140a 2a02 0014 06         
;;; STDOUT ;;)
