# FLAGS: -dv
(module
  (func (result i32)
    (return (i32.const 42))))
# STDOUT:
0000000: 00                                         ; mem size log 2
0000001: 01                                         ; export mem
0000002: 0000                                       ; num globals
0000004: 0100                                       ; num funcs
0000006: 0000                                       ; num data segments
; function header 0
0000008: 00                                         ; func num args
0000009: 01                                         ; func result type
000000a: 0000 0000                                  ; func name offset
000000e: 0000 0000                                  ; func code start offset
0000012: 0000 0000                                  ; func code end offset
0000016: 0000                                       ; num local i32
0000018: 0000                                       ; num local i64
000001a: 0000                                       ; num local f32
000001c: 0000                                       ; num local f64
000001e: 00                                         ; export func
000001f: 00                                         ; func external
; function data 0
000000e: 2000 0000                                  ; FIXUP func code start offset
0000020: 03                                         ; OPCODE_BLOCK
0000021: 01                                         ; toplevel block num expressions
0000022: 09                                         ; OPCODE_RETURN
0000023: 11                                         ; OPCODE_I32_CONST
0000024: 2a00 0000                                  ; u32 literal
0000012: 2800 0000                                  ; FIXUP func code end offset
; names
0000000: 0001 0000 0100 0000 0001 0000 0000 2000  .............. .
0000010: 0000 2800 0000 0000 0000 0000 0000 0000  ..(.............
0000020: 0301 0911 2a00 0000                      ....*...
