;;; FLAGS: -dv
(module
  (func (result i32)
    (return (i32.const 42)))
  (func (return)))
(;; STDOUT ;;;
0000000: 0061 736d                                  ; WASM_BINARY_MAGIC
0000004: 0b00 0000                                  ; WASM_BINARY_VERSION
; section "type"
0000008: 04                                         ; string length
0000009: 7479 7065                                  ; section id: "type"
000000d: 00                                         ; section size (guess)
000000e: 02                                         ; num types
; type 0
000000f: 40                                         ; function form
0000010: 00                                         ; num params
0000011: 01                                         ; num results
0000012: 01                                         ; result_type
; type 1
0000013: 40                                         ; function form
0000014: 00                                         ; num params
0000015: 00                                         ; num results
000000d: 08                                         ; FIXUP section size
; section "function"
0000016: 08                                         ; string length
0000017: 6675 6e63 7469 6f6e                        ; section id: "function"
000001f: 00                                         ; section size (guess)
0000020: 02                                         ; num functions
0000021: 00                                         ; function 0 signature index
0000022: 01                                         ; function 1 signature index
000001f: 03                                         ; FIXUP section size
; section "code"
0000023: 04                                         ; string length
0000024: 636f 6465                                  ; section id: "code"
0000028: 00                                         ; section size (guess)
0000029: 02                                         ; num functions
; function body 0
000002a: 00                                         ; func body size (guess)
000002b: 00                                         ; local decl count
000002c: 10                                         ; OPCODE_I32_CONST
000002d: 2a                                         ; i32 literal
000002e: 09                                         ; OPCODE_RETURN
000002a: 04                                         ; FIXUP func body size
; function body 1
000002f: 00                                         ; func body size (guess)
0000030: 00                                         ; local decl count
0000031: 09                                         ; OPCODE_RETURN
000002f: 02                                         ; FIXUP func body size
0000028: 09                                         ; FIXUP section size
;; dump
0000000: 0061 736d 0b00 0000 0474 7970 6508 0240  
0000010: 0001 0140 0000 0866 756e 6374 696f 6e03  
0000020: 0200 0104 636f 6465 0902 0400 102a 0902  
0000030: 0009                                     
;;; STDOUT ;;)
