;;; FLAGS: -dv
(module
  (func (result i32)
    (return (i32.const 42)))
  (func (return)))
(;; STDOUT ;;;
0000000: 0061 736d                                  ; WASM_BINARY_MAGIC
0000004: 0a00 0000                                  ; WASM_BINARY_VERSION
0000008: 01                                         ; WASM_BINARY_SECTION_SIGNATURES
0000009: 02                                         ; num signatures
; signature 0
000000a: 00                                         ; num params
000000b: 01                                         ; result_type
; signature 1
000000c: 00                                         ; num params
000000d: 00                                         ; result_type
000000e: 02                                         ; WASM_BINARY_SECTION_FUNCTIONS
000000f: 02                                         ; num functions
; function 0
0000010: 00                                         ; func flags
0000011: 0000                                       ; func signature index
0000013: 0000                                       ; func body size
0000015: 00                                         ; local decl count
0000016: 14                                         ; OPCODE_RETURN
0000017: 00                                         ; return arity
0000018: 0a                                         ; OPCODE_I32_CONST
0000019: 2a                                         ; i32 literal
0000013: 0500                                       ; FIXUP func body size
; function 1
000001a: 00                                         ; func flags
000001b: 0100                                       ; func signature index
000001d: 0000                                       ; func body size
000001f: 00                                         ; local decl count
0000020: 14                                         ; OPCODE_RETURN
0000021: 00                                         ; return arity
000001d: 0300                                       ; FIXUP func body size
0000022: 06                                         ; WASM_BINARY_SECTION_END
;; dump
0000000: 0061 736d 0a00 0000 0102 0001 0000 0202  
0000010: 0000 0005 0000 1400 0a2a 0001 0003 0000  
0000020: 1400 06                                  
;;; STDOUT ;;)
