;;; FLAGS: -dv
(module
  (func (result i32)
    (return (i32.const 42)))
  (func (return)))
(;; STDOUT ;;;
0000000: 0061 736d                                  ; WASM_BINARY_MAGIC
0000004: 0a00 0000                                  ; WASM_BINARY_VERSION
0000008: 01                                         ; WASM_BINARY_SECTION_SIGNATURES
0000009: 02                                         ; num signatures
; signature 0
000000a: 00                                         ; num params
000000b: 01                                         ; result_type
; signature 1
000000c: 00                                         ; num params
000000d: 00                                         ; result_type
000000e: 02                                         ; WASM_BINARY_SECTION_FUNCTIONS
000000f: 02                                         ; num functions
; function 0
0000010: 00                                         ; func flags
0000011: 0000                                       ; func signature index
0000013: 0000                                       ; func body size
0000015: 14                                         ; OPCODE_RETURN
0000016: 09                                         ; OPCODE_I8_CONST
0000017: 2a                                         ; u8 literal
0000013: 0300                                       ; FIXUP func body size
; function 1
0000018: 00                                         ; func flags
0000019: 0100                                       ; func signature index
000001b: 0000                                       ; func body size
000001d: 14                                         ; OPCODE_RETURN
000001b: 0100                                       ; FIXUP func body size
000001e: 06                                         ; WASM_BINARY_SECTION_END
;; dump
0000000: 0061 736d 0a00 0000 0102 0001 0000 0202  
0000010: 0000 0003 0014 092a 0001 0001 0014 06    
;;; STDOUT ;;)
