;;; FLAGS: -dv
(module
  (func
    (drop (select (i32.const 2) (i32.const 3) (i32.const 1)))
    (drop (select (i64.const 2) (i64.const 3) (i32.const 1)))
    (drop (select (f32.const 2) (f32.const 3) (i32.const 1)))
    (drop (select (f64.const 2) (f64.const 3) (i32.const 1)))))
(;; STDOUT ;;;
0000000: 0061 736d                                  ; WASM_BINARY_MAGIC
0000004: 0c00 0000                                  ; WASM_BINARY_VERSION
; section "type"
0000008: 04                                         ; string length
0000009: 7479 7065                                  ; section id: "type"
000000d: 00                                         ; section size (guess)
000000e: 01                                         ; num types
; type 0
000000f: 40                                         ; function form
0000010: 00                                         ; num params
0000011: 00                                         ; num results
000000d: 04                                         ; FIXUP section size
; section "function"
0000012: 08                                         ; string length
0000013: 6675 6e63 7469 6f6e                        ; section id: "function"
000001b: 00                                         ; section size (guess)
000001c: 01                                         ; num functions
000001d: 00                                         ; function 0 signature index
000001b: 02                                         ; FIXUP section size
; section "code"
000001e: 04                                         ; string length
000001f: 636f 6465                                  ; section id: "code"
0000023: 00                                         ; section size (guess)
0000024: 01                                         ; num functions
; function body 0
0000025: 00                                         ; func body size (guess)
0000026: 00                                         ; local decl count
0000027: 10                                         ; OPCODE_I32_CONST
0000028: 02                                         ; i32 literal
0000029: 10                                         ; OPCODE_I32_CONST
000002a: 03                                         ; i32 literal
000002b: 10                                         ; OPCODE_I32_CONST
000002c: 01                                         ; i32 literal
000002d: 05                                         ; OPCODE_SELECT
000002e: 0b                                         ; OPCODE_DROP
000002f: 11                                         ; OPCODE_I64_CONST
0000030: 02                                         ; i64 literal
0000031: 11                                         ; OPCODE_I64_CONST
0000032: 03                                         ; i64 literal
0000033: 10                                         ; OPCODE_I32_CONST
0000034: 01                                         ; i32 literal
0000035: 05                                         ; OPCODE_SELECT
0000036: 0b                                         ; OPCODE_DROP
0000037: 13                                         ; OPCODE_F32_CONST
0000038: 0000 0040                                  ; f32 literal
000003c: 13                                         ; OPCODE_F32_CONST
000003d: 0000 4040                                  ; f32 literal
0000041: 10                                         ; OPCODE_I32_CONST
0000042: 01                                         ; i32 literal
0000043: 05                                         ; OPCODE_SELECT
0000044: 0b                                         ; OPCODE_DROP
0000045: 12                                         ; OPCODE_F64_CONST
0000046: 0000 0000 0000 0040                        ; f64 literal
000004e: 12                                         ; OPCODE_F64_CONST
000004f: 0000 0000 0000 0840                        ; f64 literal
0000057: 10                                         ; OPCODE_I32_CONST
0000058: 01                                         ; i32 literal
0000059: 05                                         ; OPCODE_SELECT
000005a: 0b                                         ; OPCODE_DROP
0000025: 35                                         ; FIXUP func body size
0000023: 37                                         ; FIXUP section size
;; dump
0000000: 0061 736d 0c00 0000 0474 7970 6504 0140  
0000010: 0000 0866 756e 6374 696f 6e02 0100 0463  
0000020: 6f64 6537 0135 0010 0210 0310 0105 0b11  
0000030: 0211 0310 0105 0b13 0000 0040 1300 0040  
0000040: 4010 0105 0b12 0000 0000 0000 0040 1200  
0000050: 0000 0000 0008 4010 0105 0b              
;;; STDOUT ;;)
