;;; FLAGS: -dv
(module
  (func
    (i32.select (i32.const 1) (i32.const 2) (i32.const 3))
    (i64.select (i32.const 1) (i64.const 2) (i64.const 3))
    (f32.select (i32.const 1) (f32.const 2) (f32.const 3))
    (f64.select (i32.const 1) (f64.const 2) (f64.const 3))))
(;; STDOUT ;;;
0000000: 01                                         ; WASM_SECTION_SIGNATURES
0000001: 01                                         ; num signatures
; signature 0
0000002: 00                                         ; num params
0000003: 00                                         ; result_type
0000004: 02                                         ; WASM_SECTION_FUNCTIONS
0000005: 01                                         ; num functions
; function 0
0000006: 00                                         ; func flags
0000007: 0000                                       ; func signature index
0000009: 0000                                       ; func body size
000000b: 05                                         ; OPCODE_SELECT
000000c: 09                                         ; OPCODE_I8_CONST
000000d: 01                                         ; u8 literal
000000e: 09                                         ; OPCODE_I8_CONST
000000f: 02                                         ; u8 literal
0000010: 09                                         ; OPCODE_I8_CONST
0000011: 03                                         ; u8 literal
0000012: 05                                         ; OPCODE_SELECT
0000013: 09                                         ; OPCODE_I8_CONST
0000014: 01                                         ; u8 literal
0000015: 0b                                         ; OPCODE_I64_CONST
0000016: 0200 0000 0000 0000                        ; u64 literal
000001e: 0b                                         ; OPCODE_I64_CONST
000001f: 0300 0000 0000 0000                        ; u64 literal
0000027: 05                                         ; OPCODE_SELECT
0000028: 09                                         ; OPCODE_I8_CONST
0000029: 01                                         ; u8 literal
000002a: 0d                                         ; OPCODE_F32_CONST
000002b: 0000 0040                                  ; f32 literal
000002f: 0d                                         ; OPCODE_F32_CONST
0000030: 0000 4040                                  ; f32 literal
0000034: 05                                         ; OPCODE_SELECT
0000035: 09                                         ; OPCODE_I8_CONST
0000036: 01                                         ; u8 literal
0000037: 0c                                         ; OPCODE_F64_CONST
0000038: 0000 0000 0000 0040                        ; f64 literal
0000040: 0c                                         ; OPCODE_F64_CONST
0000041: 0000 0000 0000 0840                        ; f64 literal
0000009: 3e00                                       ; FIXUP func body size
0000049: 06                                         ; WASM_SECTION_END
;;; STDOUT ;;)
