;;; FLAGS: -dv
(module
  (func
    (select (i32.const 2) (i32.const 3) (i32.const 1))
    (select (i64.const 2) (i64.const 3) (i32.const 1))
    (select (f32.const 2) (f32.const 3) (i32.const 1))
    (select (f64.const 2) (f64.const 3) (i32.const 1))))
(;; STDOUT ;;;
0000000: 0061 736d                                  ; WASM_BINARY_MAGIC
0000004: 0a00 0000                                  ; WASM_BINARY_VERSION
0000008: 01                                         ; WASM_BINARY_SECTION_SIGNATURES
0000009: 01                                         ; num signatures
; signature 0
000000a: 00                                         ; num params
000000b: 00                                         ; result_type
000000c: 02                                         ; WASM_BINARY_SECTION_FUNCTIONS
000000d: 01                                         ; num functions
; function 0
000000e: 00                                         ; func flags
000000f: 0000                                       ; func signature index
0000011: 0000                                       ; func body size
0000013: 00                                         ; local decl count
0000014: 05                                         ; OPCODE_SELECT
0000015: 0a                                         ; OPCODE_I32_CONST
0000016: 02                                         ; i32 literal
0000017: 0a                                         ; OPCODE_I32_CONST
0000018: 03                                         ; i32 literal
0000019: 0a                                         ; OPCODE_I32_CONST
000001a: 01                                         ; i32 literal
000001b: 05                                         ; OPCODE_SELECT
000001c: 0b                                         ; OPCODE_I64_CONST
000001d: 02                                         ; i64 literal
000001e: 0b                                         ; OPCODE_I64_CONST
000001f: 03                                         ; i64 literal
0000020: 0a                                         ; OPCODE_I32_CONST
0000021: 01                                         ; i32 literal
0000022: 05                                         ; OPCODE_SELECT
0000023: 0d                                         ; OPCODE_F32_CONST
0000024: 0000 0040                                  ; f32 literal
0000028: 0d                                         ; OPCODE_F32_CONST
0000029: 0000 4040                                  ; f32 literal
000002d: 0a                                         ; OPCODE_I32_CONST
000002e: 01                                         ; i32 literal
000002f: 05                                         ; OPCODE_SELECT
0000030: 0c                                         ; OPCODE_F64_CONST
0000031: 0000 0000 0000 0040                        ; f64 literal
0000039: 0c                                         ; OPCODE_F64_CONST
000003a: 0000 0000 0000 0840                        ; f64 literal
0000042: 0a                                         ; OPCODE_I32_CONST
0000043: 01                                         ; i32 literal
0000011: 3100                                       ; FIXUP func body size
0000044: 06                                         ; WASM_BINARY_SECTION_END
;; dump
0000000: 0061 736d 0a00 0000 0101 0000 0201 0000  
0000010: 0031 0000 050a 020a 030a 0105 0b02 0b03  
0000020: 0a01 050d 0000 0040 0d00 0040 400a 0105  
0000030: 0c00 0000 0000 0000 400c 0000 0000 0000  
0000040: 0840 0a01 06                             
;;; STDOUT ;;)
