;;; FLAGS: -dv
(module
  (func
    (i32.select (i32.const 2) (i32.const 3) (i32.const 1))
    (i64.select (i64.const 2) (i64.const 3) (i32.const 1))
    (f32.select (f32.const 2) (f32.const 3) (i32.const 1))
    (f64.select (f64.const 2) (f64.const 3) (i32.const 1))))
(;; STDOUT ;;;
0000000: 01                                         ; WASM_SECTION_SIGNATURES
0000001: 01                                         ; num signatures
; signature 0
0000002: 00                                         ; num params
0000003: 00                                         ; result_type
0000004: 02                                         ; WASM_SECTION_FUNCTIONS
0000005: 01                                         ; num functions
; function 0
0000006: 00                                         ; func flags
0000007: 0000                                       ; func signature index
0000009: 0000                                       ; func body size
000000b: 05                                         ; OPCODE_SELECT
000000c: 09                                         ; OPCODE_I8_CONST
000000d: 02                                         ; u8 literal
000000e: 09                                         ; OPCODE_I8_CONST
000000f: 03                                         ; u8 literal
0000010: 09                                         ; OPCODE_I8_CONST
0000011: 01                                         ; u8 literal
0000012: 05                                         ; OPCODE_SELECT
0000013: 0b                                         ; OPCODE_I64_CONST
0000014: 0200 0000 0000 0000                        ; u64 literal
000001c: 0b                                         ; OPCODE_I64_CONST
000001d: 0300 0000 0000 0000                        ; u64 literal
0000025: 09                                         ; OPCODE_I8_CONST
0000026: 01                                         ; u8 literal
0000027: 05                                         ; OPCODE_SELECT
0000028: 0d                                         ; OPCODE_F32_CONST
0000029: 0000 0040                                  ; f32 literal
000002d: 0d                                         ; OPCODE_F32_CONST
000002e: 0000 4040                                  ; f32 literal
0000032: 09                                         ; OPCODE_I8_CONST
0000033: 01                                         ; u8 literal
0000034: 05                                         ; OPCODE_SELECT
0000035: 0c                                         ; OPCODE_F64_CONST
0000036: 0000 0000 0000 0040                        ; f64 literal
000003e: 0c                                         ; OPCODE_F64_CONST
000003f: 0000 0000 0000 0840                        ; f64 literal
0000047: 09                                         ; OPCODE_I8_CONST
0000048: 01                                         ; u8 literal
0000009: 3e00                                       ; FIXUP func body size
0000049: 06                                         ; WASM_SECTION_END
;; dump
0000000: 0101 0000 0201 0000 003e 0005 0902 0903  
0000010: 0901 050b 0200 0000 0000 0000 0b03 0000  
0000020: 0000 0000 0009 0105 0d00 0000 400d 0000  
0000030: 4040 0901 050c 0000 0000 0000 0040 0c00  
0000040: 0000 0000 0008 4009 0106                 
;;; STDOUT ;;)
