;;; FLAGS: -dv
(module
  (func
    (select (i32.const 2) (i32.const 3) (i32.const 1))
    (select (i64.const 2) (i64.const 3) (i32.const 1))
    (select (f32.const 2) (f32.const 3) (i32.const 1))
    (select (f64.const 2) (f64.const 3) (i32.const 1))))
(;; STDOUT ;;;
0000000: 0061 736d                                  ; WASM_BINARY_MAGIC
0000004: 0a00 0000                                  ; WASM_BINARY_VERSION
0000008: 01                                         ; WASM_BINARY_SECTION_SIGNATURES
0000009: 01                                         ; num signatures
; signature 0
000000a: 00                                         ; num params
000000b: 00                                         ; result_type
000000c: 02                                         ; WASM_BINARY_SECTION_FUNCTIONS
000000d: 01                                         ; num functions
; function 0
000000e: 00                                         ; func flags
000000f: 0000                                       ; func signature index
0000011: 0000                                       ; func body size
0000013: 05                                         ; OPCODE_SELECT
0000014: 0a                                         ; OPCODE_I32_CONST
0000015: 02                                         ; i32 literal
0000016: 0a                                         ; OPCODE_I32_CONST
0000017: 03                                         ; i32 literal
0000018: 0a                                         ; OPCODE_I32_CONST
0000019: 01                                         ; i32 literal
000001a: 05                                         ; OPCODE_SELECT
000001b: 0b                                         ; OPCODE_I64_CONST
000001c: 02                                         ; i64 literal
000001d: 0b                                         ; OPCODE_I64_CONST
000001e: 03                                         ; i64 literal
000001f: 0a                                         ; OPCODE_I32_CONST
0000020: 01                                         ; i32 literal
0000021: 05                                         ; OPCODE_SELECT
0000022: 0d                                         ; OPCODE_F32_CONST
0000023: 0000 0040                                  ; f32 literal
0000027: 0d                                         ; OPCODE_F32_CONST
0000028: 0000 4040                                  ; f32 literal
000002c: 0a                                         ; OPCODE_I32_CONST
000002d: 01                                         ; i32 literal
000002e: 05                                         ; OPCODE_SELECT
000002f: 0c                                         ; OPCODE_F64_CONST
0000030: 0000 0000 0000 0040                        ; f64 literal
0000038: 0c                                         ; OPCODE_F64_CONST
0000039: 0000 0000 0000 0840                        ; f64 literal
0000041: 0a                                         ; OPCODE_I32_CONST
0000042: 01                                         ; i32 literal
0000011: 3000                                       ; FIXUP func body size
0000043: 06                                         ; WASM_BINARY_SECTION_END
;; dump
0000000: 0061 736d 0a00 0000 0101 0000 0201 0000  
0000010: 0030 0005 0a02 0a03 0a01 050b 020b 030a  
0000020: 0105 0d00 0000 400d 0000 4040 0a01 050c  
0000030: 0000 0000 0000 0040 0c00 0000 0000 0008  
0000040: 400a 0106                                
;;; STDOUT ;;)
