;;; FLAGS: -dv
(module
  (func
    i32.const 2
    i32.const 3
    i32.const 1
    select
    drop
    i64.const 2
    i64.const 3
    i32.const 1
    select
    drop
    f32.const 2
    f32.const 3
    i32.const 1
    select
    drop
    f64.const 2
    f64.const 3
    i32.const 1
    select
    drop))
(;; STDOUT ;;;
0000000: 0061 736d                                 ; WASM_BINARY_MAGIC
0000004: 0c00 0000                                 ; WASM_BINARY_VERSION
; section "TYPE" (1)
0000008: 01                                        ; section code
0000009: 00                                        ; section size (guess)
000000a: 01                                        ; num types
; type 0
000000b: 40                                        ; function form
000000c: 00                                        ; num params
000000d: 00                                        ; num results
0000009: 04                                        ; FIXUP section size
; section "FUNCTION" (3)
000000e: 03                                        ; section code
000000f: 00                                        ; section size (guess)
0000010: 01                                        ; num functions
0000011: 00                                        ; function 0 signature index
000000f: 02                                        ; FIXUP section size
; section "CODE" (10)
0000012: 0a                                        ; section code
0000013: 00                                        ; section size (guess)
0000014: 01                                        ; num functions
; function body 0
0000015: 00                                        ; func body size (guess)
0000016: 00                                        ; local decl count
0000017: 10                                        ; i32.const
0000018: 02                                        ; i32 literal
0000019: 10                                        ; i32.const
000001a: 03                                        ; i32 literal
000001b: 10                                        ; i32.const
000001c: 01                                        ; i32 literal
000001d: 05                                        ; select
000001e: 0b                                        ; drop
000001f: 11                                        ; i64.const
0000020: 02                                        ; i64 literal
0000021: 11                                        ; i64.const
0000022: 03                                        ; i64 literal
0000023: 10                                        ; i32.const
0000024: 01                                        ; i32 literal
0000025: 05                                        ; select
0000026: 0b                                        ; drop
0000027: 13                                        ; f32.const
0000028: 0000 0040                                 ; f32 literal
000002c: 13                                        ; f32.const
000002d: 0000 4040                                 ; f32 literal
0000031: 10                                        ; i32.const
0000032: 01                                        ; i32 literal
0000033: 05                                        ; select
0000034: 0b                                        ; drop
0000035: 12                                        ; f64.const
0000036: 0000 0000 0000 0040                       ; f64 literal
000003e: 12                                        ; f64.const
000003f: 0000 0000 0000 0840                       ; f64 literal
0000047: 10                                        ; i32.const
0000048: 01                                        ; i32 literal
0000049: 05                                        ; select
000004a: 0b                                        ; drop
000004b: 0f                                        ; end
0000015: 36                                        ; FIXUP func body size
0000013: 38                                        ; FIXUP section size
;; dump
0000000: 0061 736d 0c00 0000 0104 0140 0000 0302 
0000010: 0100 0a38 0136 0010 0210 0310 0105 0b11 
0000020: 0211 0310 0105 0b13 0000 0040 1300 0040 
0000030: 4010 0105 0b12 0000 0000 0000 0040 1200 
0000040: 0000 0000 0008 4010 0105 0b0f           
;;; STDOUT ;;)
