;;; FLAGS: -dv
(module
  (global f32 (f32.const 1))
  (func
    (set_global 0 (f32.const 2))))
(;; STDOUT ;;;
0000000: 0061 736d                                  ; WASM_BINARY_MAGIC
0000004: 0c00 0000                                  ; WASM_BINARY_VERSION
; section "type"
0000008: 04                                         ; string length
0000009: 7479 7065                                  ; section id: "type"
000000d: 00                                         ; section size (guess)
000000e: 01                                         ; num types
; type 0
000000f: 40                                         ; function form
0000010: 00                                         ; num params
0000011: 00                                         ; num results
000000d: 04                                         ; FIXUP section size
; section "function"
0000012: 08                                         ; string length
0000013: 6675 6e63 7469 6f6e                        ; section id: "function"
000001b: 00                                         ; section size (guess)
000001c: 01                                         ; num functions
000001d: 00                                         ; function 0 signature index
000001b: 02                                         ; FIXUP section size
; section "global"
000001e: 06                                         ; string length
000001f: 676c 6f62 616c                             ; section id: "global"
0000025: 00                                         ; section size (guess)
0000026: 01                                         ; num globals
0000027: 03                                         ; WASM_TYPE_F32
0000028: 13                                         ; OPCODE_F32_CONST
0000029: 0000 803f                                  ; f32 literal
000002d: 0f                                         ; OPCODE_END
0000025: 08                                         ; FIXUP section size
; section "code"
000002e: 04                                         ; string length
000002f: 636f 6465                                  ; section id: "code"
0000033: 00                                         ; section size (guess)
0000034: 01                                         ; num functions
; function body 0
0000035: 00                                         ; func body size (guess)
0000036: 00                                         ; local decl count
0000037: 13                                         ; OPCODE_F32_CONST
0000038: 0000 0040                                  ; f32 literal
000003c: bc                                         ; OPCODE_SET_GLOBAL
000003d: 00                                         ; global index
0000035: 08                                         ; FIXUP func body size
0000033: 0a                                         ; FIXUP section size
;; dump
0000000: 0061 736d 0c00 0000 0474 7970 6504 0140  
0000010: 0000 0866 756e 6374 696f 6e02 0100 0667  
0000020: 6c6f 6261 6c08 0103 1300 0080 3f0f 0463  
0000030: 6f64 650a 0108 0013 0000 0040 bc00       
;;; STDOUT ;;)
