;;; FLAGS: -dv
(module
  ;;             0   1
  (func (param i32 f32)
    ;; i32           2
    ;; i64   3
    ;; f32       4       5
    (local i64 f32 i32 f32)
    (set_local 0 (i32.const 0))
    (set_local 1 (f32.const 0))
    (set_local 2 (i64.const 0))
    (set_local 3 (f32.const 0))
    (set_local 4 (i32.const 0))
    (set_local 5 (f32.const 0))))
(;; STDOUT ;;;
0000000: 0061 736d                                  ; WASM_BINARY_MAGIC
0000004: 0a00 0000                                  ; WASM_BINARY_VERSION
0000008: 01                                         ; WASM_BINARY_SECTION_SIGNATURES
0000009: 01                                         ; num signatures
; signature 0
000000a: 02                                         ; num params
000000b: 00                                         ; result_type
000000c: 01                                         ; param type
000000d: 03                                         ; param type
000000e: 02                                         ; WASM_BINARY_SECTION_FUNCTIONS
000000f: 01                                         ; num functions
; function 0
0000010: 04                                         ; func flags
0000011: 0000                                       ; func signature index
0000013: 0100                                       ; num local i32
0000015: 0100                                       ; num local i64
0000017: 0200                                       ; num local f32
0000019: 0000                                       ; num local f64
000001b: 0000                                       ; func body size
000001d: 0f                                         ; OPCODE_SET_LOCAL
000001e: 00                                         ; remapped local index
000001f: 0a                                         ; OPCODE_I32_CONST
0000020: 00                                         ; i32 literal
0000021: 0f                                         ; OPCODE_SET_LOCAL
0000022: 01                                         ; remapped local index
0000023: 0d                                         ; OPCODE_F32_CONST
0000024: 0000 0000                                  ; f32 literal
0000028: 0f                                         ; OPCODE_SET_LOCAL
0000029: 03                                         ; remapped local index
000002a: 0b                                         ; OPCODE_I64_CONST
000002b: 00                                         ; i64 literal
000002c: 0f                                         ; OPCODE_SET_LOCAL
000002d: 04                                         ; remapped local index
000002e: 0d                                         ; OPCODE_F32_CONST
000002f: 0000 0000                                  ; f32 literal
0000033: 0f                                         ; OPCODE_SET_LOCAL
0000034: 02                                         ; remapped local index
0000035: 0a                                         ; OPCODE_I32_CONST
0000036: 00                                         ; i32 literal
0000037: 0f                                         ; OPCODE_SET_LOCAL
0000038: 05                                         ; remapped local index
0000039: 0d                                         ; OPCODE_F32_CONST
000003a: 0000 0000                                  ; f32 literal
000001b: 2100                                       ; FIXUP func body size
000003e: 06                                         ; WASM_BINARY_SECTION_END
;; dump
0000000: 0061 736d 0a00 0000 0101 0200 0103 0201  
0000010: 0400 0001 0001 0002 0000 0021 000f 000a  
0000020: 000f 010d 0000 0000 0f03 0b00 0f04 0d00  
0000030: 0000 000f 020a 000f 050d 0000 0000 06    
;;; STDOUT ;;)
