;;; FLAGS: -dv
(module
  ;;             0   1
  (func (param i32 f32)
    ;; i32           2
    ;; i64   3
    ;; f32       4       5
    (local i64 f32 i32 f32)
    (set_local 0 (i32.const 0))
    (set_local 1 (f32.const 0))
    (set_local 2 (i64.const 0))
    (set_local 3 (f32.const 0))
    (set_local 4 (i32.const 0))
    (set_local 5 (f32.const 0))))
(;; STDOUT ;;;
0000000: 0061 736d                                  ; WASM_BINARY_MAGIC
0000004: 0a00 0000                                  ; WASM_BINARY_VERSION
0000008: 01                                         ; WASM_BINARY_SECTION_SIGNATURES
0000009: 01                                         ; num signatures
; signature 0
000000a: 02                                         ; num params
000000b: 00                                         ; result_type
000000c: 01                                         ; param type
000000d: 03                                         ; param type
000000e: 0a                                         ; WASM_BINARY_SECTION_FUNCTION_SIGNATURES
000000f: 01                                         ; num functions
0000010: 00                                         ; function 0 signature index
0000011: 0b                                         ; WASM_BINARY_SECTION_FUNCTION_BODIES
0000012: 01                                         ; num functions
; function body 0
0000013: 00                                         ; func body size (guess)
0000014: 03                                         ; local decl count
0000015: 01                                         ; local i32 count
0000016: 01                                         ; WASM_TYPE_I32
0000017: 01                                         ; local i64 count
0000018: 02                                         ; WASM_TYPE_I64
0000019: 02                                         ; local f32 count
000001a: 03                                         ; WASM_TYPE_F32
000001b: 0f                                         ; OPCODE_SET_LOCAL
000001c: 00                                         ; remapped local index
000001d: 0a                                         ; OPCODE_I32_CONST
000001e: 00                                         ; i32 literal
000001f: 0f                                         ; OPCODE_SET_LOCAL
0000020: 01                                         ; remapped local index
0000021: 0d                                         ; OPCODE_F32_CONST
0000022: 0000 0000                                  ; f32 literal
0000026: 0f                                         ; OPCODE_SET_LOCAL
0000027: 03                                         ; remapped local index
0000028: 0b                                         ; OPCODE_I64_CONST
0000029: 00                                         ; i64 literal
000002a: 0f                                         ; OPCODE_SET_LOCAL
000002b: 04                                         ; remapped local index
000002c: 0d                                         ; OPCODE_F32_CONST
000002d: 0000 0000                                  ; f32 literal
0000031: 0f                                         ; OPCODE_SET_LOCAL
0000032: 02                                         ; remapped local index
0000033: 0a                                         ; OPCODE_I32_CONST
0000034: 00                                         ; i32 literal
0000035: 0f                                         ; OPCODE_SET_LOCAL
0000036: 05                                         ; remapped local index
0000037: 0d                                         ; OPCODE_F32_CONST
0000038: 0000 0000                                  ; f32 literal
0000013: 28                                         ; FIXUP func body size
000003c: 06                                         ; WASM_BINARY_SECTION_END
;; dump
0000000: 0061 736d 0a00 0000 0101 0200 0103 0a01  
0000010: 000b 0128 0301 0101 0202 030f 000a 000f  
0000020: 010d 0000 0000 0f03 0b00 0f04 0d00 0000  
0000030: 000f 020a 000f 050d 0000 0000 06         
;;; STDOUT ;;)
