# FLAGS: -dv
(module
  ;;             0   1
  (func (param i32 f32)
    ;; i32           2
    ;; i64   3
    ;; f32       4       5
    (local i64 f32 i32 f32)
    (set_local 0 (i32.const 0))
    (set_local 1 (f32.const 0))
    (set_local 2 (i64.const 0))
    (set_local 3 (f32.const 0))
    (set_local 4 (i32.const 0))
    (set_local 5 (f32.const 0))))
# STDOUT:
0000000: 00                                         ; mem size log 2
0000001: 01                                         ; export mem
0000002: 0000                                       ; num globals
0000004: 0100                                       ; num funcs
0000006: 0000                                       ; num data segments
; function header 0
0000008: 02                                         ; func num args
0000009: 00                                         ; func result type
000000a: 01                                         ; func arg type
000000b: 03                                         ; func arg type
000000c: 0000 0000                                  ; func name offset
0000010: 0000 0000                                  ; func code start offset
0000014: 0000 0000                                  ; func code end offset
0000018: 0100                                       ; num local i32
000001a: 0100                                       ; num local i64
000001c: 0200                                       ; num local f32
000001e: 0000                                       ; num local f64
0000020: 00                                         ; export func
0000021: 00                                         ; func external
; function data 0
0000010: 2200 0000                                  ; FIXUP func code start offset
0000022: 03                                         ; OPCODE_BLOCK
0000023: 01                                         ; toplevel block num expressions
0000024: 16                                         ; OPCODE_SET_LOCAL
0000025: 00                                         ; remapped local index
0000026: 11                                         ; OPCODE_I32_CONST
0000027: 0000 0000                                  ; u32 literal
000002b: 16                                         ; OPCODE_SET_LOCAL
000002c: 01                                         ; remapped local index
000002d: 14                                         ; OPCODE_F32_CONST
000002e: 0000 0000                                  ; f32 literal
0000032: 16                                         ; OPCODE_SET_LOCAL
0000033: 03                                         ; remapped local index
0000034: 12                                         ; OPCODE_I64_CONST
0000035: 0000 0000 0000 0000                        ; u64 literal
000003d: 16                                         ; OPCODE_SET_LOCAL
000003e: 04                                         ; remapped local index
000003f: 14                                         ; OPCODE_F32_CONST
0000040: 0000 0000                                  ; f32 literal
0000044: 16                                         ; OPCODE_SET_LOCAL
0000045: 02                                         ; remapped local index
0000046: 11                                         ; OPCODE_I32_CONST
0000047: 0000 0000                                  ; u32 literal
000004b: 16                                         ; OPCODE_SET_LOCAL
000004c: 05                                         ; remapped local index
000004d: 14                                         ; OPCODE_F32_CONST
000004e: 0000 0000                                  ; f32 literal
0000014: 5200 0000                                  ; FIXUP func code end offset
; names
0000000: 0001 0000 0100 0000 0200 0103 0000 0000  ................
0000010: 2200 0000 5200 0000 0100 0100 0200 0000  "...R...........
0000020: 0000 0301 1600 1100 0000 0016 0114 0000  ................
0000030: 0000 1603 1200 0000 0000 0000 0016 0414  ................
0000040: 0000 0000 1602 1100 0000 0016 0514 0000  ................
0000050: 0000                                     ..
