;;; FLAGS: -dv
(module
  ;;             0   1
  (func (param i32 f32)
    ;; i32           2
    ;; i64   3
    ;; f32       4       5
    (local i64 f32 i32 f32)
    (set_local 0 (i32.const 0))
    (set_local 1 (f32.const 0))
    (set_local 2 (i64.const 0))
    (set_local 3 (f32.const 0))
    (set_local 4 (i32.const 0))
    (set_local 5 (f32.const 0))))
(;; STDOUT ;;;
0000000: 01                                         ; WASM_SECTION_SIGNATURES
0000001: 01                                         ; num signatures
; signature 0
0000002: 02                                         ; num params
0000003: 00                                         ; result_type
0000004: 01                                         ; param type
0000005: 03                                         ; param type
0000006: 02                                         ; WASM_SECTION_FUNCTIONS
0000007: 01                                         ; num functions
; function 0
0000008: 04                                         ; func flags
0000009: 0000                                       ; func signature index
000000b: 0100                                       ; num local i32
000000d: 0100                                       ; num local i64
000000f: 0200                                       ; num local f32
0000011: 0000                                       ; num local f64
0000013: 0000                                       ; func body size
0000015: 0f                                         ; OPCODE_SET_LOCAL
0000016: 00                                         ; remapped local index
0000017: 09                                         ; OPCODE_I8_CONST
0000018: 00                                         ; u8 literal
0000019: 0f                                         ; OPCODE_SET_LOCAL
000001a: 01                                         ; remapped local index
000001b: 0d                                         ; OPCODE_F32_CONST
000001c: 0000 0000                                  ; f32 literal
0000020: 0f                                         ; OPCODE_SET_LOCAL
0000021: 03                                         ; remapped local index
0000022: 0b                                         ; OPCODE_I64_CONST
0000023: 0000 0000 0000 0000                        ; u64 literal
000002b: 0f                                         ; OPCODE_SET_LOCAL
000002c: 04                                         ; remapped local index
000002d: 0d                                         ; OPCODE_F32_CONST
000002e: 0000 0000                                  ; f32 literal
0000032: 0f                                         ; OPCODE_SET_LOCAL
0000033: 02                                         ; remapped local index
0000034: 09                                         ; OPCODE_I8_CONST
0000035: 00                                         ; u8 literal
0000036: 0f                                         ; OPCODE_SET_LOCAL
0000037: 05                                         ; remapped local index
0000038: 0d                                         ; OPCODE_F32_CONST
0000039: 0000 0000                                  ; f32 literal
0000013: 2800                                       ; FIXUP func body size
000003d: 06                                         ; WASM_SECTION_END
;;; STDOUT ;;)
