;;; FLAGS: -dv
(module
  (func
    ;; i32               0   1
    ;; i64           2                   3
    ;; f32       4               5
    ;; f64   6                       7
    (local f64 f32 i64 i32 i32 f32 f64 i64)
    (set_local 0 (f64.const 0))
    (set_local 1 (f32.const 0))
    (set_local 2 (i64.const 0))
    (set_local 3 (i32.const 0))
    (set_local 4 (i32.const 0))
    (set_local 5 (f32.const 0))
    (set_local 6 (f64.const 0))
    (set_local 7 (i64.const 0))))
(;; STDOUT ;;;
0000000: 0061 736d                                  ; WASM_BINARY_MAGIC
0000004: 0a00 0000                                  ; WASM_BINARY_VERSION
0000008: 01                                         ; WASM_BINARY_SECTION_SIGNATURES
0000009: 01                                         ; num signatures
; signature 0
000000a: 00                                         ; num params
000000b: 00                                         ; result_type
000000c: 02                                         ; WASM_BINARY_SECTION_FUNCTIONS
000000d: 01                                         ; num functions
; function 0
000000e: 04                                         ; func flags
000000f: 0000                                       ; func signature index
0000011: 0200                                       ; num local i32
0000013: 0200                                       ; num local i64
0000015: 0200                                       ; num local f32
0000017: 0200                                       ; num local f64
0000019: 0000                                       ; func body size
000001b: 0f                                         ; OPCODE_SET_LOCAL
000001c: 06                                         ; remapped local index
000001d: 0c                                         ; OPCODE_F64_CONST
000001e: 0000 0000 0000 0000                        ; f64 literal
0000026: 0f                                         ; OPCODE_SET_LOCAL
0000027: 04                                         ; remapped local index
0000028: 0d                                         ; OPCODE_F32_CONST
0000029: 0000 0000                                  ; f32 literal
000002d: 0f                                         ; OPCODE_SET_LOCAL
000002e: 02                                         ; remapped local index
000002f: 0b                                         ; OPCODE_I64_CONST
0000030: 00                                         ; i64 literal
0000031: 0f                                         ; OPCODE_SET_LOCAL
0000032: 00                                         ; remapped local index
0000033: 0a                                         ; OPCODE_I32_CONST
0000034: 00                                         ; i32 literal
0000035: 0f                                         ; OPCODE_SET_LOCAL
0000036: 01                                         ; remapped local index
0000037: 0a                                         ; OPCODE_I32_CONST
0000038: 00                                         ; i32 literal
0000039: 0f                                         ; OPCODE_SET_LOCAL
000003a: 05                                         ; remapped local index
000003b: 0d                                         ; OPCODE_F32_CONST
000003c: 0000 0000                                  ; f32 literal
0000040: 0f                                         ; OPCODE_SET_LOCAL
0000041: 07                                         ; remapped local index
0000042: 0c                                         ; OPCODE_F64_CONST
0000043: 0000 0000 0000 0000                        ; f64 literal
000004b: 0f                                         ; OPCODE_SET_LOCAL
000004c: 03                                         ; remapped local index
000004d: 0b                                         ; OPCODE_I64_CONST
000004e: 00                                         ; i64 literal
0000019: 3400                                       ; FIXUP func body size
000004f: 06                                         ; WASM_BINARY_SECTION_END
;; dump
0000000: 0061 736d 0a00 0000 0101 0000 0201 0400  
0000010: 0002 0002 0002 0002 0034 000f 060c 0000  
0000020: 0000 0000 0000 0f04 0d00 0000 000f 020b  
0000030: 000f 000a 000f 010a 000f 050d 0000 0000  
0000040: 0f07 0c00 0000 0000 0000 000f 030b 0006  
;;; STDOUT ;;)
