# FLAGS: -dv
(module
  (func
    ;; i32               0   1
    ;; i64           2                   3
    ;; f32       4               5
    ;; f64   6                       7
    (local f64 f32 i64 i32 i32 f32 f64 i64)
    (set_local 0 (f64.const 0))
    (set_local 1 (f32.const 0))
    (set_local 2 (i64.const 0))
    (set_local 3 (i32.const 0))
    (set_local 4 (i32.const 0))
    (set_local 5 (f32.const 0))
    (set_local 6 (f64.const 0))
    (set_local 7 (i64.const 0))))
# STDOUT:
0000000: 00                                         ; mem size log 2
0000001: 01                                         ; export mem
0000002: 0000                                       ; num globals
0000004: 0100                                       ; num funcs
0000006: 0000                                       ; num data segments
; function header 0
0000008: 00                                         ; func num args
0000009: 00                                         ; func result type
000000a: 0000 0000                                  ; func name offset
000000e: 0000 0000                                  ; func code start offset
0000012: 0000 0000                                  ; func code end offset
0000016: 0200                                       ; num local i32
0000018: 0200                                       ; num local i64
000001a: 0200                                       ; num local f32
000001c: 0200                                       ; num local f64
000001e: 00                                         ; export func
000001f: 00                                         ; func external
; function data 0
000000e: 2000 0000                                  ; FIXUP func code start offset
0000020: 03                                         ; OPCODE_BLOCK
0000021: 00                                         ; toplevel block num expressions
0000022: 16                                         ; OPCODE_SET_LOCAL
0000023: 06                                         ; remapped local index
0000024: 13                                         ; OPCODE_F64_CONST
0000025: 0000 0000 0000 0000                        ; f64 literal
000002d: 16                                         ; OPCODE_SET_LOCAL
000002e: 04                                         ; remapped local index
000002f: 14                                         ; OPCODE_F32_CONST
0000030: 0000 0000                                  ; f32 literal
0000034: 16                                         ; OPCODE_SET_LOCAL
0000035: 02                                         ; remapped local index
0000036: 12                                         ; OPCODE_I64_CONST
0000037: 0000 0000 0000 0000                        ; u64 literal
000003f: 16                                         ; OPCODE_SET_LOCAL
0000040: 00                                         ; remapped local index
0000041: 10                                         ; OPCODE_I8_CONST
0000042: 00                                         ; u8 literal
0000043: 16                                         ; OPCODE_SET_LOCAL
0000044: 01                                         ; remapped local index
0000045: 10                                         ; OPCODE_I8_CONST
0000046: 00                                         ; u8 literal
0000047: 16                                         ; OPCODE_SET_LOCAL
0000048: 05                                         ; remapped local index
0000049: 14                                         ; OPCODE_F32_CONST
000004a: 0000 0000                                  ; f32 literal
000004e: 16                                         ; OPCODE_SET_LOCAL
000004f: 07                                         ; remapped local index
0000050: 13                                         ; OPCODE_F64_CONST
0000051: 0000 0000 0000 0000                        ; f64 literal
0000059: 16                                         ; OPCODE_SET_LOCAL
000005a: 03                                         ; remapped local index
000005b: 12                                         ; OPCODE_I64_CONST
000005c: 0000 0000 0000 0000                        ; u64 literal
0000021: 08                                         ; FIXUP toplevel block num expressions
0000012: 6400 0000                                  ; FIXUP func code end offset
; names
0000000: 0001 0000 0100 0000 0000 0000 0000 2000  .............. .
0000010: 0000 6400 0000 0200 0200 0200 0200 0000  ..d.............
0000020: 0308 1606 1300 0000 0000 0000 0016 0414  ................
0000030: 0000 0000 1602 1200 0000 0000 0000 0016  ................
0000040: 0010 0016 0110 0016 0514 0000 0000 1607  ................
0000050: 1300 0000 0000 0000 0016 0312 0000 0000  ................
0000060: 0000 0000                                ....
