;;; FLAGS: -dv
(module
  (func
    ;; i32               0   1
    ;; i64           2                   3
    ;; f32       4               5
    ;; f64   6                       7
    (local f64 f32 i64 i32 i32 f32 f64 i64)
    (set_local 0 (f64.const 0))
    (set_local 1 (f32.const 0))
    (set_local 2 (i64.const 0))
    (set_local 3 (i32.const 0))
    (set_local 4 (i32.const 0))
    (set_local 5 (f32.const 0))
    (set_local 6 (f64.const 0))
    (set_local 7 (i64.const 0))))
(;; STDOUT ;;;
0000000: 0061 736d                                  ; WASM_BINARY_MAGIC
0000004: 0b00 0000                                  ; WASM_BINARY_VERSION
; section "type"
0000008: 04                                         ; string length
0000009: 7479 7065                                  ; section id: "type"
000000d: 00                                         ; section size (guess)
000000e: 01                                         ; num types
; type 0
000000f: 40                                         ; function form
0000010: 00                                         ; num params
0000011: 00                                         ; num results
000000d: 04                                         ; FIXUP section size
; section "function"
0000012: 08                                         ; string length
0000013: 6675 6e63 7469 6f6e                        ; section id: "function"
000001b: 00                                         ; section size (guess)
000001c: 01                                         ; num functions
000001d: 00                                         ; function 0 signature index
000001b: 02                                         ; FIXUP section size
; section "code"
000001e: 04                                         ; string length
000001f: 636f 6465                                  ; section id: "code"
0000023: 00                                         ; section size (guess)
0000024: 01                                         ; num functions
; function body 0
0000025: 00                                         ; func body size (guess)
0000026: 07                                         ; local decl count
0000027: 01                                         ; local type count
0000028: 04                                         ; WASM_TYPE_F64
0000029: 01                                         ; local type count
000002a: 03                                         ; WASM_TYPE_F32
000002b: 01                                         ; local type count
000002c: 02                                         ; WASM_TYPE_I64
000002d: 02                                         ; local type count
000002e: 01                                         ; WASM_TYPE_I32
000002f: 01                                         ; local type count
0000030: 03                                         ; WASM_TYPE_F32
0000031: 01                                         ; local type count
0000032: 04                                         ; WASM_TYPE_F64
0000033: 01                                         ; local type count
0000034: 02                                         ; WASM_TYPE_I64
0000035: 12                                         ; OPCODE_F64_CONST
0000036: 0000 0000 0000 0000                        ; f64 literal
000003e: 15                                         ; OPCODE_SET_LOCAL
000003f: 00                                         ; local index
0000040: 13                                         ; OPCODE_F32_CONST
0000041: 0000 0000                                  ; f32 literal
0000045: 15                                         ; OPCODE_SET_LOCAL
0000046: 01                                         ; local index
0000047: 11                                         ; OPCODE_I64_CONST
0000048: 00                                         ; i64 literal
0000049: 15                                         ; OPCODE_SET_LOCAL
000004a: 02                                         ; local index
000004b: 10                                         ; OPCODE_I32_CONST
000004c: 00                                         ; i32 literal
000004d: 15                                         ; OPCODE_SET_LOCAL
000004e: 03                                         ; local index
000004f: 10                                         ; OPCODE_I32_CONST
0000050: 00                                         ; i32 literal
0000051: 15                                         ; OPCODE_SET_LOCAL
0000052: 04                                         ; local index
0000053: 13                                         ; OPCODE_F32_CONST
0000054: 0000 0000                                  ; f32 literal
0000058: 15                                         ; OPCODE_SET_LOCAL
0000059: 05                                         ; local index
000005a: 12                                         ; OPCODE_F64_CONST
000005b: 0000 0000 0000 0000                        ; f64 literal
0000063: 15                                         ; OPCODE_SET_LOCAL
0000064: 06                                         ; local index
0000065: 11                                         ; OPCODE_I64_CONST
0000066: 00                                         ; i64 literal
0000067: 15                                         ; OPCODE_SET_LOCAL
0000068: 07                                         ; local index
0000025: 43                                         ; FIXUP func body size
0000023: 45                                         ; FIXUP section size
;; dump
0000000: 0061 736d 0b00 0000 0474 7970 6504 0140  
0000010: 0000 0866 756e 6374 696f 6e02 0100 0463  
0000020: 6f64 6545 0143 0701 0401 0301 0202 0101  
0000030: 0301 0401 0212 0000 0000 0000 0000 1500  
0000040: 1300 0000 0015 0111 0015 0210 0015 0310  
0000050: 0015 0413 0000 0000 1505 1200 0000 0000  
0000060: 0000 0015 0611 0015 07                   
;;; STDOUT ;;)
