;;; FLAGS: -dv
(module
  (func
    ;; i32               0   1
    ;; i64           2                   3
    ;; f32       4               5
    ;; f64   6                       7
    (local f64 f32 i64 i32 i32 f32 f64 i64)
    (set_local 0 (f64.const 0))
    (set_local 1 (f32.const 0))
    (set_local 2 (i64.const 0))
    (set_local 3 (i32.const 0))
    (set_local 4 (i32.const 0))
    (set_local 5 (f32.const 0))
    (set_local 6 (f64.const 0))
    (set_local 7 (i64.const 0))))
(;; STDOUT ;;;
0000000: 0061 736d                                  ; WASM_BINARY_MAGIC
0000004: 0a00 0000                                  ; WASM_BINARY_VERSION
; section "signatures"
0000008: 00                                         ; section size (guess)
0000009: 0a                                         ; string length
000000a: 7369 676e 6174 7572 6573                   ; section id: "signatures"
0000014: 01                                         ; num signatures
; signature 0
0000015: 00                                         ; num params
0000016: 00                                         ; result_type
0000008: 0e                                         ; FIXUP section size
; section "function_signatures"
0000017: 00                                         ; section size (guess)
0000018: 13                                         ; string length
0000019: 6675 6e63 7469 6f6e 5f73 6967 6e61 7475  
0000029: 7265 73                                    ; section id: "function_signatures"
000002c: 01                                         ; num functions
000002d: 00                                         ; function 0 signature index
0000017: 16                                         ; FIXUP section size
; section "function_bodies"
000002e: 00                                         ; section size (guess)
000002f: 0f                                         ; string length
0000030: 6675 6e63 7469 6f6e 5f62 6f64 6965 73      ; section id: "function_bodies"
000003f: 01                                         ; num functions
; function body 0
0000040: 00                                         ; func body size (guess)
0000041: 04                                         ; local decl count
0000042: 02                                         ; local i32 count
0000043: 01                                         ; WASM_TYPE_I32
0000044: 02                                         ; local i64 count
0000045: 02                                         ; WASM_TYPE_I64
0000046: 02                                         ; local f32 count
0000047: 03                                         ; WASM_TYPE_F32
0000048: 02                                         ; local f64 count
0000049: 04                                         ; WASM_TYPE_F64
000004a: 0f                                         ; OPCODE_SET_LOCAL
000004b: 06                                         ; remapped local index
000004c: 0c                                         ; OPCODE_F64_CONST
000004d: 0000 0000 0000 0000                        ; f64 literal
0000055: 0f                                         ; OPCODE_SET_LOCAL
0000056: 04                                         ; remapped local index
0000057: 0d                                         ; OPCODE_F32_CONST
0000058: 0000 0000                                  ; f32 literal
000005c: 0f                                         ; OPCODE_SET_LOCAL
000005d: 02                                         ; remapped local index
000005e: 0b                                         ; OPCODE_I64_CONST
000005f: 00                                         ; i64 literal
0000060: 0f                                         ; OPCODE_SET_LOCAL
0000061: 00                                         ; remapped local index
0000062: 0a                                         ; OPCODE_I32_CONST
0000063: 00                                         ; i32 literal
0000064: 0f                                         ; OPCODE_SET_LOCAL
0000065: 01                                         ; remapped local index
0000066: 0a                                         ; OPCODE_I32_CONST
0000067: 00                                         ; i32 literal
0000068: 0f                                         ; OPCODE_SET_LOCAL
0000069: 05                                         ; remapped local index
000006a: 0d                                         ; OPCODE_F32_CONST
000006b: 0000 0000                                  ; f32 literal
000006f: 0f                                         ; OPCODE_SET_LOCAL
0000070: 07                                         ; remapped local index
0000071: 0c                                         ; OPCODE_F64_CONST
0000072: 0000 0000 0000 0000                        ; f64 literal
000007a: 0f                                         ; OPCODE_SET_LOCAL
000007b: 03                                         ; remapped local index
000007c: 0b                                         ; OPCODE_I64_CONST
000007d: 00                                         ; i64 literal
0000040: 3d                                         ; FIXUP func body size
000002e: 4f                                         ; FIXUP section size
; section "end"
000007e: 00                                         ; section size (guess)
000007f: 03                                         ; string length
0000080: 656e 64                                    ; section id: "end"
000007e: 04                                         ; FIXUP section size
;; dump
0000000: 0061 736d 0a00 0000 0e0a 7369 676e 6174  
0000010: 7572 6573 0100 0016 1366 756e 6374 696f  
0000020: 6e5f 7369 676e 6174 7572 6573 0100 4f0f  
0000030: 6675 6e63 7469 6f6e 5f62 6f64 6965 7301  
0000040: 3d04 0201 0202 0203 0204 0f06 0c00 0000  
0000050: 0000 0000 000f 040d 0000 0000 0f02 0b00  
0000060: 0f00 0a00 0f01 0a00 0f05 0d00 0000 000f  
0000070: 070c 0000 0000 0000 0000 0f03 0b00 0403  
0000080: 656e 64                                  
;;; STDOUT ;;)
