;;; FLAGS: -dv
(module
  ;;             0   1
  (func (param i32 f32)
    ;; i32           2
    ;; i64   3
    ;; f32       4       5
    (local i64 f32 i32 f32)
    (set_local 0 (i32.const 0))
    (set_local 1 (f32.const 0))
    (set_local 2 (i64.const 0))
    (set_local 3 (f32.const 0))
    (set_local 4 (i32.const 0))
    (set_local 5 (f32.const 0))))
(;; STDOUT ;;;
0000000: 0061 736d                                  ; WASM_BINARY_MAGIC
0000004: 0a00 0000                                  ; WASM_BINARY_VERSION
0000008: 01                                         ; WASM_BINARY_SECTION_SIGNATURES
0000009: 01                                         ; num signatures
; signature 0
000000a: 02                                         ; num params
000000b: 00                                         ; result_type
000000c: 01                                         ; param type
000000d: 03                                         ; param type
000000e: 02                                         ; WASM_BINARY_SECTION_FUNCTIONS
000000f: 01                                         ; num functions
; function 0
0000010: 00                                         ; func flags
0000011: 0000                                       ; func signature index
0000013: 0000                                       ; func body size
0000015: 00                                         ; local decl count
0000016: 01                                         ; local i32 count
0000017: 01                                         ; type i32
0000018: 01                                         ; local i64 count
0000019: 02                                         ; type i64
000001a: 02                                         ; local f32 count
000001b: 03                                         ; type f32
0000015: 03                                         ; local decl count
000001c: 0f                                         ; OPCODE_SET_LOCAL
000001d: 00                                         ; remapped local index
000001e: 0a                                         ; OPCODE_I32_CONST
000001f: 00                                         ; i32 literal
0000020: 0f                                         ; OPCODE_SET_LOCAL
0000021: 01                                         ; remapped local index
0000022: 0d                                         ; OPCODE_F32_CONST
0000023: 0000 0000                                  ; f32 literal
0000027: 0f                                         ; OPCODE_SET_LOCAL
0000028: 03                                         ; remapped local index
0000029: 0b                                         ; OPCODE_I64_CONST
000002a: 00                                         ; i64 literal
000002b: 0f                                         ; OPCODE_SET_LOCAL
000002c: 04                                         ; remapped local index
000002d: 0d                                         ; OPCODE_F32_CONST
000002e: 0000 0000                                  ; f32 literal
0000032: 0f                                         ; OPCODE_SET_LOCAL
0000033: 02                                         ; remapped local index
0000034: 0a                                         ; OPCODE_I32_CONST
0000035: 00                                         ; i32 literal
0000036: 0f                                         ; OPCODE_SET_LOCAL
0000037: 05                                         ; remapped local index
0000038: 0d                                         ; OPCODE_F32_CONST
0000039: 0000 0000                                  ; f32 literal
0000013: 2800                                       ; FIXUP func body size
000003d: 06                                         ; WASM_BINARY_SECTION_END
;; dump
0000000: 0061 736d 0a00 0000 0101 0200 0103 0201  
0000010: 0000 0028 0003 0101 0102 0203 0f00 0a00  
0000020: 0f01 0d00 0000 000f 030b 000f 040d 0000  
0000030: 0000 0f02 0a00 0f05 0d00 0000 0006       
;;; STDOUT ;;)
