# FLAGS: -dv
(module
  ;;             0   1
  (func (param i32 f32)
    ;; i32           2
    ;; i64   3
    ;; f32       4       5
    (local i64 f32 i32 f32)
    (set_local 0 (i32.const 0))
    (set_local 1 (f32.const 0))
    (set_local 2 (i64.const 0))
    (set_local 3 (f32.const 0))
    (set_local 4 (i32.const 0))
    (set_local 5 (f32.const 0))))
# STDOUT:
0000000: 00                                         ; mem size log 2
0000001: 01                                         ; export mem
0000002: 0000                                       ; num globals
0000004: 0100                                       ; num funcs
0000006: 0000                                       ; num data segments
; function header 0
0000008: 02                                         ; func num args
0000009: 00                                         ; func result type
000000a: 01                                         ; func arg type
000000b: 03                                         ; func arg type
000000c: 0000 0000                                  ; func name offset
0000010: 0000 0000                                  ; func code start offset
0000014: 0000 0000                                  ; func code end offset
0000018: 0100                                       ; num local i32
000001a: 0100                                       ; num local i64
000001c: 0200                                       ; num local f32
000001e: 0000                                       ; num local f64
0000020: 00                                         ; export func
0000021: 00                                         ; func external
; function data 0
0000010: 2200 0000                                  ; FIXUP func code start offset
0000022: 16                                         ; OPCODE_SET_LOCAL
0000023: 00                                         ; remapped local index
0000024: 11                                         ; OPCODE_I32_CONST
0000025: 0000 0000                                  ; u32 literal
0000029: 16                                         ; OPCODE_SET_LOCAL
000002a: 01                                         ; remapped local index
000002b: 14                                         ; OPCODE_F32_CONST
000002c: 0000 0000                                  ; f32 literal
0000030: 16                                         ; OPCODE_SET_LOCAL
0000031: 03                                         ; remapped local index
0000032: 12                                         ; OPCODE_I64_CONST
0000033: 0000 0000 0000 0000                        ; u64 literal
000003b: 16                                         ; OPCODE_SET_LOCAL
000003c: 04                                         ; remapped local index
000003d: 14                                         ; OPCODE_F32_CONST
000003e: 0000 0000                                  ; f32 literal
0000042: 16                                         ; OPCODE_SET_LOCAL
0000043: 02                                         ; remapped local index
0000044: 11                                         ; OPCODE_I32_CONST
0000045: 0000 0000                                  ; u32 literal
0000049: 16                                         ; OPCODE_SET_LOCAL
000004a: 05                                         ; remapped local index
000004b: 14                                         ; OPCODE_F32_CONST
000004c: 0000 0000                                  ; f32 literal
0000014: 5000 0000                                  ; FIXUP func code end offset
; names
0000000: 0001 0000 0100 0000 0200 0103 0000 0000  ................
0000010: 2200 0000 5000 0000 0100 0100 0200 0000  "...P...........
0000020: 0000 1600 1100 0000 0016 0114 0000 0000  ................
0000030: 1603 1200 0000 0000 0000 0016 0414 0000  ................
0000040: 0000 1602 1100 0000 0016 0514 0000 0000  ................
