;;; FLAGS: -dv
(module
  (type (func (param i32)))
  (type (func (param i64)))
  (type (func (param f32)))
  (type (func (param f64)))

  (type (func (result i32)))
  (type (func (result i64)))
  (type (func (result f32)))
  (type (func (result f64)))

  (type (func (param i32) (result f64))))
(;; STDOUT ;;;
0000000: 0061 736d                                  ; WASM_BINARY_MAGIC
0000004: 0a00 0000                                  ; WASM_BINARY_VERSION
; section "signatures"
0000008: 00                                         ; section size (guess)
0000009: 0a                                         ; string length
000000a: 7369 676e 6174 7572 6573                   ; section id: "signatures"
0000014: 09                                         ; num signatures
; signature 0
0000015: 01                                         ; num params
0000016: 00                                         ; result_type
0000017: 01                                         ; param type
; signature 1
0000018: 01                                         ; num params
0000019: 00                                         ; result_type
000001a: 02                                         ; param type
; signature 2
000001b: 01                                         ; num params
000001c: 00                                         ; result_type
000001d: 03                                         ; param type
; signature 3
000001e: 01                                         ; num params
000001f: 00                                         ; result_type
0000020: 04                                         ; param type
; signature 4
0000021: 00                                         ; num params
0000022: 01                                         ; result_type
; signature 5
0000023: 00                                         ; num params
0000024: 02                                         ; result_type
; signature 6
0000025: 00                                         ; num params
0000026: 03                                         ; result_type
; signature 7
0000027: 00                                         ; num params
0000028: 04                                         ; result_type
; signature 8
0000029: 01                                         ; num params
000002a: 04                                         ; result_type
000002b: 01                                         ; param type
0000008: 23                                         ; FIXUP section size
;; dump
0000000: 0061 736d 0a00 0000 230a 7369 676e 6174  
0000010: 7572 6573 0901 0001 0100 0201 0003 0100  
0000020: 0400 0100 0200 0300 0401 0401            
;;; STDOUT ;;)
