;;; FLAGS: -dv
(module
  (type (func (param i32)))
  (type (func (param i64)))
  (type (func (param f32)))
  (type (func (param f64)))

  (type (func (result i32)))
  (type (func (result i64)))
  (type (func (result f32)))
  (type (func (result f64)))

  (type (func (param i32) (result f64))))
(;; STDOUT ;;;
0000000: 0061 736d                                  ; WASM_BINARY_MAGIC
0000004: 0a00 0000                                  ; WASM_BINARY_VERSION
0000008: 01                                         ; WASM_BINARY_SECTION_SIGNATURES
0000009: 09                                         ; num signatures
; signature 0
000000a: 01                                         ; num params
000000b: 00                                         ; result_type
000000c: 01                                         ; param type
; signature 1
000000d: 01                                         ; num params
000000e: 00                                         ; result_type
000000f: 02                                         ; param type
; signature 2
0000010: 01                                         ; num params
0000011: 00                                         ; result_type
0000012: 03                                         ; param type
; signature 3
0000013: 01                                         ; num params
0000014: 00                                         ; result_type
0000015: 04                                         ; param type
; signature 4
0000016: 00                                         ; num params
0000017: 01                                         ; result_type
; signature 5
0000018: 00                                         ; num params
0000019: 02                                         ; result_type
; signature 6
000001a: 00                                         ; num params
000001b: 03                                         ; result_type
; signature 7
000001c: 00                                         ; num params
000001d: 04                                         ; result_type
; signature 8
000001e: 01                                         ; num params
000001f: 04                                         ; result_type
0000020: 01                                         ; param type
0000021: 06                                         ; WASM_BINARY_SECTION_END
;; dump
0000000: 0061 736d 0a00 0000 0109 0100 0101 0002  
0000010: 0100 0301 0004 0001 0002 0003 0004 0104  
0000020: 0106                                     
;;; STDOUT ;;)
