;;; FLAGS: -dv
(module
  (func
    (i32.store8 (i32.const 0) (i32.const 0))
    (i32.store16 (i32.const 0) (i32.const 0))
    (i32.store (i32.const 0) (i32.const 0))
    (i64.store (i32.const 0) (i64.const 0))
    (i64.store8 (i32.const 0) (i64.const 0))
    (i64.store16 (i32.const 0) (i64.const 0))
    (i64.store32 (i32.const 0) (i64.const 0))
    (f32.store (i32.const 0) (f32.const 0))
    (f64.store (i32.const 0) (f64.const 0))))
(;; STDOUT ;;;
0000000: 0061 736d                                  ; WASM_BINARY_MAGIC
0000004: 0a00 0000                                  ; WASM_BINARY_VERSION
0000008: 01                                         ; WASM_BINARY_SECTION_SIGNATURES
0000009: 01                                         ; num signatures
; signature 0
000000a: 00                                         ; num params
000000b: 00                                         ; result_type
000000c: 02                                         ; WASM_BINARY_SECTION_FUNCTIONS
000000d: 01                                         ; num functions
; function 0
000000e: 00                                         ; func flags
000000f: 0000                                       ; func signature index
0000011: 0000                                       ; func body size
0000013: 2e                                         ; OPCODE_I32_STORE_MEM8
0000014: 00                                         ; store access byte
0000015: 0a                                         ; OPCODE_I32_CONST
0000016: 00                                         ; i32 literal
0000017: 0a                                         ; OPCODE_I32_CONST
0000018: 00                                         ; i32 literal
0000019: 2f                                         ; OPCODE_I32_STORE_MEM16
000001a: 00                                         ; store access byte
000001b: 0a                                         ; OPCODE_I32_CONST
000001c: 00                                         ; i32 literal
000001d: 0a                                         ; OPCODE_I32_CONST
000001e: 00                                         ; i32 literal
000001f: 33                                         ; OPCODE_I32_STORE_MEM
0000020: 00                                         ; store access byte
0000021: 0a                                         ; OPCODE_I32_CONST
0000022: 00                                         ; i32 literal
0000023: 0a                                         ; OPCODE_I32_CONST
0000024: 00                                         ; i32 literal
0000025: 34                                         ; OPCODE_I64_STORE_MEM
0000026: 00                                         ; store access byte
0000027: 0a                                         ; OPCODE_I32_CONST
0000028: 00                                         ; i32 literal
0000029: 0b                                         ; OPCODE_I64_CONST
000002a: 00                                         ; i64 literal
000002b: 30                                         ; OPCODE_I64_STORE_MEM8
000002c: 00                                         ; store access byte
000002d: 0a                                         ; OPCODE_I32_CONST
000002e: 00                                         ; i32 literal
000002f: 0b                                         ; OPCODE_I64_CONST
0000030: 00                                         ; i64 literal
0000031: 31                                         ; OPCODE_I64_STORE_MEM16
0000032: 00                                         ; store access byte
0000033: 0a                                         ; OPCODE_I32_CONST
0000034: 00                                         ; i32 literal
0000035: 0b                                         ; OPCODE_I64_CONST
0000036: 00                                         ; i64 literal
0000037: 32                                         ; OPCODE_I64_STORE_MEM32
0000038: 00                                         ; store access byte
0000039: 0a                                         ; OPCODE_I32_CONST
000003a: 00                                         ; i32 literal
000003b: 0b                                         ; OPCODE_I64_CONST
000003c: 00                                         ; i64 literal
000003d: 35                                         ; OPCODE_F32_STORE_MEM
000003e: 00                                         ; store access byte
000003f: 0a                                         ; OPCODE_I32_CONST
0000040: 00                                         ; i32 literal
0000041: 0d                                         ; OPCODE_F32_CONST
0000042: 0000 0000                                  ; f32 literal
0000046: 36                                         ; OPCODE_F64_STORE_MEM
0000047: 00                                         ; store access byte
0000048: 0a                                         ; OPCODE_I32_CONST
0000049: 00                                         ; i32 literal
000004a: 0c                                         ; OPCODE_F64_CONST
000004b: 0000 0000 0000 0000                        ; f64 literal
0000011: 4000                                       ; FIXUP func body size
0000053: 06                                         ; WASM_BINARY_SECTION_END
;; dump
0000000: 0061 736d 0a00 0000 0101 0000 0201 0000  
0000010: 0040 002e 000a 000a 002f 000a 000a 0033  
0000020: 000a 000a 0034 000a 000b 0030 000a 000b  
0000030: 0031 000a 000b 0032 000a 000b 0035 000a  
0000040: 000d 0000 0000 3600 0a00 0c00 0000 0000  
0000050: 0000 0006                                
;;; STDOUT ;;)
