# FLAGS: -dv
(module
  (global i32 i64 f32 f64)
  (func
    (store_global 0 (i32.const 0))
    (store_global 1 (i64.const 1))
    (store_global 2 (f32.const 2))
    (store_global 3 (f64.const 3))))
# STDOUT:
0000000: 00                                         ; mem size log 2
0000001: 01                                         ; export mem
0000002: 0400                                       ; num globals
0000004: 0100                                       ; num funcs
0000006: 0000                                       ; num data segments
; global header 0
0000008: 0000 0000                                  ; global name offset
000000c: 04                                         ; global mem type
000000d: 0000 0000                                  ; global offset
0000011: 00                                         ; export global
; global header 1
0000012: 0000 0000                                  ; global name offset
0000016: 06                                         ; global mem type
0000017: 0000 0000                                  ; global offset
000001b: 00                                         ; export global
; global header 2
000001c: 0000 0000                                  ; global name offset
0000020: 08                                         ; global mem type
0000021: 0000 0000                                  ; global offset
0000025: 00                                         ; export global
; global header 3
0000026: 0000 0000                                  ; global name offset
000002a: 09                                         ; global mem type
000002b: 0000 0000                                  ; global offset
000002f: 00                                         ; export global
; function header 0
0000030: 00                                         ; func num args
0000031: 00                                         ; func result type
0000032: 0000 0000                                  ; func name offset
0000036: 0000 0000                                  ; func code start offset
000003a: 0000 0000                                  ; func code end offset
000003e: 0000                                       ; num local i32
0000040: 0000                                       ; num local i64
0000042: 0000                                       ; num local f32
0000044: 0000                                       ; num local f64
0000046: 00                                         ; export func
0000047: 00                                         ; func external
; function data 0
0000036: 4800 0000                                  ; FIXUP func code start offset
0000048: 03                                         ; OPCODE_BLOCK
0000049: 01                                         ; toplevel block num expressions
000004a: 18                                         ; OPCODE_SET_GLOBAL
000004b: 00                                         ; global index
000004c: 11                                         ; OPCODE_I32_CONST
000004d: 0000 0000                                  ; u32 literal
0000051: 18                                         ; OPCODE_SET_GLOBAL
0000052: 01                                         ; global index
0000053: 12                                         ; OPCODE_I64_CONST
0000054: 0100 0000 0000 0000                        ; u64 literal
000005c: 18                                         ; OPCODE_SET_GLOBAL
000005d: 02                                         ; global index
000005e: 14                                         ; OPCODE_F32_CONST
000005f: 0000 0040                                  ; f32 literal
0000063: 18                                         ; OPCODE_SET_GLOBAL
0000064: 03                                         ; global index
0000065: 13                                         ; OPCODE_F64_CONST
0000066: 0000 0000 0000 0840                        ; f64 literal
000003a: 6e00 0000                                  ; FIXUP func code end offset
; names
0000000: 0001 0400 0100 0000 0000 0000 0400 0000  ................
0000010: 0000 0000 0000 0600 0000 0000 0000 0000  ................
0000020: 0800 0000 0000 0000 0000 0900 0000 0000  ................
0000030: 0000 0000 0000 4800 0000 6e00 0000 0000  ......H...n.....
0000040: 0000 0000 0000 0000 0301 1800 1100 0000  ................
0000050: 0018 0112 0100 0000 0000 0000 1802 1400  ................
0000060: 0000 4018 0313 0000 0000 0000 0840       ..@..........@
