;;; FLAGS: -dv
(module
  (global i32 i64 f32 f64)
  (func
    (store_global 0 (i32.const 0))
    (store_global 1 (i64.const 1))
    (store_global 2 (f32.const 2))
    (store_global 3 (f64.const 3))))
(;; STDOUT ;;;
0000000: 00                                         ; WASM_SECTION_MEMORY
0000001: 00                                         ; min mem size log 2
0000002: 00                                         ; max mem size log 2
0000003: 01                                         ; export mem
0000004: 03                                         ; WASM_SECTION_GLOBALS
0000005: 04                                         ; num globals
; global header 0
0000006: 0000 0000                                  ; global name offset
000000a: 04                                         ; global mem type
000000b: 00                                         ; export global
; global header 1
000000c: 0000 0000                                  ; global name offset
0000010: 06                                         ; global mem type
0000011: 00                                         ; export global
; global header 2
0000012: 0000 0000                                  ; global name offset
0000016: 08                                         ; global mem type
0000017: 00                                         ; export global
; global header 3
0000018: 0000 0000                                  ; global name offset
000001c: 09                                         ; global mem type
000001d: 00                                         ; export global
000001e: 01                                         ; WASM_SECTION_SIGNATURES
000001f: 01                                         ; num signatures
; signature 0
0000020: 00                                         ; num args
0000021: 00                                         ; result_type
0000022: 02                                         ; WASM_SECTION_FUNCTIONS
0000023: 01                                         ; num functions
; function 0
0000024: 01                                         ; func flags
0000025: 0000                                       ; func signature index
0000027: 0000 0000                                  ; func name offset
000002b: 0000                                       ; func body size
000002d: 11                                         ; OPCODE_SET_GLOBAL
000002e: 00                                         ; global index
000002f: 09                                         ; OPCODE_I8_CONST
0000030: 00                                         ; u8 literal
0000031: 11                                         ; OPCODE_SET_GLOBAL
0000032: 01                                         ; global index
0000033: 0b                                         ; OPCODE_I64_CONST
0000034: 0100 0000 0000 0000                        ; u64 literal
000003c: 11                                         ; OPCODE_SET_GLOBAL
000003d: 02                                         ; global index
000003e: 0d                                         ; OPCODE_F32_CONST
000003f: 0000 0040                                  ; f32 literal
0000043: 11                                         ; OPCODE_SET_GLOBAL
0000044: 03                                         ; global index
0000045: 0c                                         ; OPCODE_F64_CONST
0000046: 0000 0000 0000 0840                        ; f64 literal
000002b: 2100                                       ; FIXUP func body size
000004e: 06                                         ; WASM_SECTION_END
; names
0000000: 0000 0001 0304 0000 0000 0400 0000 0000  ................
0000010: 0600 0000 0000 0800 0000 0000 0900 0101  ................
0000020: 0000 0201 0100 0000 0000 0021 0011 0009  ...........!....
0000030: 0011 010b 0100 0000 0000 0000 1102 0d00  ................
0000040: 0000 4011 030c 0000 0000 0000 0840 06    ..@..........@.
;;; STDOUT ;;)
