# FLAGS: -dv
(module
  (func
    (i32.store/i8 (i32.const 0) (i32.const 0))
    (i32.store/i16 (i32.const 0) (i32.const 0))
    (i32.store/i32 (i32.const 0) (i32.const 0))
    (i64.store/i64 (i32.const 0) (i64.const 0))
    (f32.store/f32 (i32.const 0) (f32.const 0))
    (f64.store/f64 (i32.const 0) (f64.const 0))))
# STDOUT:
0000000: 00                                         ; mem size log 2
0000001: 01                                         ; export mem
0000002: 0000                                       ; num globals
0000004: 0100                                       ; num funcs
0000006: 0000                                       ; num data segments
; function header 0
0000008: 00                                         ; func num args
0000009: 00                                         ; func result type
000000a: 0000 0000                                  ; func name offset
000000e: 0000 0000                                  ; func code start offset
0000012: 0000 0000                                  ; func code end offset
0000016: 0000                                       ; num local i32
0000018: 0000                                       ; num local i64
000001a: 0000                                       ; num local f32
000001c: 0000                                       ; num local f64
000001e: 00                                         ; export func
000001f: 00                                         ; func external
; function data 0
000000e: 2000 0000                                  ; FIXUP func code start offset
0000020: 03                                         ; OPCODE_BLOCK
0000021: 00                                         ; toplevel block num expressions
0000022: 30                                         ; OPCODE_I32_STORE_I32
0000023: 04                                         ; store access byte
0000024: 11                                         ; OPCODE_I32_CONST
0000025: 0000 0000                                  ; u32 literal
0000029: 11                                         ; OPCODE_I32_CONST
000002a: 0000 0000                                  ; u32 literal
000002e: 30                                         ; OPCODE_I32_STORE_I32
000002f: 05                                         ; store access byte
0000030: 11                                         ; OPCODE_I32_CONST
0000031: 0000 0000                                  ; u32 literal
0000035: 11                                         ; OPCODE_I32_CONST
0000036: 0000 0000                                  ; u32 literal
000003a: 30                                         ; OPCODE_I32_STORE_I32
000003b: 06                                         ; store access byte
000003c: 11                                         ; OPCODE_I32_CONST
000003d: 0000 0000                                  ; u32 literal
0000041: 11                                         ; OPCODE_I32_CONST
0000042: 0000 0000                                  ; u32 literal
0000046: 31                                         ; OPCODE_I64_STORE_I32
0000047: 07                                         ; store access byte
0000048: 11                                         ; OPCODE_I32_CONST
0000049: 0000 0000                                  ; u32 literal
000004d: 12                                         ; OPCODE_I64_CONST
000004e: 0000 0000 0000 0000                        ; u64 literal
0000056: 32                                         ; OPCODE_F32_STORE_I32
0000057: 00                                         ; store access byte
0000058: 11                                         ; OPCODE_I32_CONST
0000059: 0000 0000                                  ; u32 literal
000005d: 14                                         ; OPCODE_F32_CONST
000005e: 0000 0000                                  ; f32 literal
0000062: 33                                         ; OPCODE_F64_STORE_I32
0000063: 00                                         ; store access byte
0000064: 11                                         ; OPCODE_I32_CONST
0000065: 0000 0000                                  ; u32 literal
0000069: 13                                         ; OPCODE_F64_CONST
000006a: 0000 0000 0000 0000                        ; f64 literal
0000021: 06                                         ; FIXUP toplevel block num expressions
0000012: 7200 0000                                  ; FIXUP func code end offset
; names
0000000: 0001 0000 0100 0000 0000 0000 0000 2000  .............. .
0000010: 0000 7200 0000 0000 0000 0000 0000 0000  ..r.............
0000020: 0306 3004 1100 0000 0011 0000 0000 3005  ..0...........0.
0000030: 1100 0000 0011 0000 0000 3006 1100 0000  ..........0.....
0000040: 0011 0000 0000 3107 1100 0000 0012 0000  ......1.........
0000050: 0000 0000 0000 3200 1100 0000 0014 0000  ......2.........
0000060: 0000 3300 1100 0000 0013 0000 0000 0000  ..3.............
0000070: 0000                                     ..
