;;; FLAGS: -dv
(module
  (func
    (i32.store8 align=1 (i32.const 0) (i32.const 0))
    (i32.store8 align=2 (i32.const 0) (i32.const 0))
    (i32.store8 align=4 (i32.const 0) (i32.const 0))
    (i32.store8 align=8 (i32.const 0) (i32.const 0))

    (i32.store16 align=1 (i32.const 0) (i32.const 0))
    (i32.store16 align=2 (i32.const 0) (i32.const 0))
    (i32.store16 align=4 (i32.const 0) (i32.const 0))
    (i32.store16 align=8 (i32.const 0) (i32.const 0))

    (i32.store align=1 (i32.const 0) (i32.const 0))
    (i32.store align=2 (i32.const 0) (i32.const 0))
    (i32.store align=4 (i32.const 0) (i32.const 0))
    (i32.store align=8 (i32.const 0) (i32.const 0))

    (i64.store align=1 (i32.const 0) (i64.const 0))
    (i64.store align=2 (i32.const 0) (i64.const 0))
    (i64.store align=4 (i32.const 0) (i64.const 0))
    (i64.store align=8 (i32.const 0) (i64.const 0))

    (i64.store8 align=1 (i32.const 0) (i64.const 0))
    (i64.store8 align=2 (i32.const 0) (i64.const 0))
    (i64.store8 align=4 (i32.const 0) (i64.const 0))
    (i64.store8 align=8 (i32.const 0) (i64.const 0))

    (i64.store16 align=1 (i32.const 0) (i64.const 0))
    (i64.store16 align=2 (i32.const 0) (i64.const 0))
    (i64.store16 align=4 (i32.const 0) (i64.const 0))
    (i64.store16 align=8 (i32.const 0) (i64.const 0))

    (i64.store align=1 (i32.const 0) (i64.const 0))
    (i64.store align=2 (i32.const 0) (i64.const 0))
    (i64.store align=4 (i32.const 0) (i64.const 0))
    (i64.store align=8 (i32.const 0) (i64.const 0))))
(;; STDOUT ;;;
0000000: 0061 736d                                  ; WASM_BINARY_MAGIC
0000004: 0c00 0000                                  ; WASM_BINARY_VERSION
; section "TYPE" (1)
0000008: 01                                         ; section code
0000009: 00                                         ; section size (guess)
000000a: 01                                         ; num types
; type 0
000000b: 40                                         ; function form
000000c: 00                                         ; num params
000000d: 00                                         ; num results
0000009: 04                                         ; FIXUP section size
; section "FUNCTION" (3)
000000e: 03                                         ; section code
000000f: 00                                         ; section size (guess)
0000010: 01                                         ; num functions
0000011: 00                                         ; function 0 signature index
000000f: 02                                         ; FIXUP section size
; section "CODE" (10)
0000012: 0a                                         ; section code
0000013: 00                                         ; section size (guess)
0000014: 01                                         ; num functions
; function body 0
0000015: 00                                         ; func body size (guess)
0000016: 00                                         ; local decl count
0000017: 10                                         ; OPCODE_I32_CONST
0000018: 00                                         ; i32 literal
0000019: 10                                         ; OPCODE_I32_CONST
000001a: 00                                         ; i32 literal
000001b: 2e                                         ; OPCODE_I32_STORE8
000001c: 00                                         ; alignment
000001d: 00                                         ; store offset
000001e: 10                                         ; OPCODE_I32_CONST
000001f: 00                                         ; i32 literal
0000020: 10                                         ; OPCODE_I32_CONST
0000021: 00                                         ; i32 literal
0000022: 2e                                         ; OPCODE_I32_STORE8
0000023: 01                                         ; alignment
0000024: 00                                         ; store offset
0000025: 10                                         ; OPCODE_I32_CONST
0000026: 00                                         ; i32 literal
0000027: 10                                         ; OPCODE_I32_CONST
0000028: 00                                         ; i32 literal
0000029: 2e                                         ; OPCODE_I32_STORE8
000002a: 02                                         ; alignment
000002b: 00                                         ; store offset
000002c: 10                                         ; OPCODE_I32_CONST
000002d: 00                                         ; i32 literal
000002e: 10                                         ; OPCODE_I32_CONST
000002f: 00                                         ; i32 literal
0000030: 2e                                         ; OPCODE_I32_STORE8
0000031: 03                                         ; alignment
0000032: 00                                         ; store offset
0000033: 10                                         ; OPCODE_I32_CONST
0000034: 00                                         ; i32 literal
0000035: 10                                         ; OPCODE_I32_CONST
0000036: 00                                         ; i32 literal
0000037: 2f                                         ; OPCODE_I32_STORE16
0000038: 00                                         ; alignment
0000039: 00                                         ; store offset
000003a: 10                                         ; OPCODE_I32_CONST
000003b: 00                                         ; i32 literal
000003c: 10                                         ; OPCODE_I32_CONST
000003d: 00                                         ; i32 literal
000003e: 2f                                         ; OPCODE_I32_STORE16
000003f: 01                                         ; alignment
0000040: 00                                         ; store offset
0000041: 10                                         ; OPCODE_I32_CONST
0000042: 00                                         ; i32 literal
0000043: 10                                         ; OPCODE_I32_CONST
0000044: 00                                         ; i32 literal
0000045: 2f                                         ; OPCODE_I32_STORE16
0000046: 02                                         ; alignment
0000047: 00                                         ; store offset
0000048: 10                                         ; OPCODE_I32_CONST
0000049: 00                                         ; i32 literal
000004a: 10                                         ; OPCODE_I32_CONST
000004b: 00                                         ; i32 literal
000004c: 2f                                         ; OPCODE_I32_STORE16
000004d: 03                                         ; alignment
000004e: 00                                         ; store offset
000004f: 10                                         ; OPCODE_I32_CONST
0000050: 00                                         ; i32 literal
0000051: 10                                         ; OPCODE_I32_CONST
0000052: 00                                         ; i32 literal
0000053: 33                                         ; OPCODE_I32_STORE
0000054: 00                                         ; alignment
0000055: 00                                         ; store offset
0000056: 10                                         ; OPCODE_I32_CONST
0000057: 00                                         ; i32 literal
0000058: 10                                         ; OPCODE_I32_CONST
0000059: 00                                         ; i32 literal
000005a: 33                                         ; OPCODE_I32_STORE
000005b: 01                                         ; alignment
000005c: 00                                         ; store offset
000005d: 10                                         ; OPCODE_I32_CONST
000005e: 00                                         ; i32 literal
000005f: 10                                         ; OPCODE_I32_CONST
0000060: 00                                         ; i32 literal
0000061: 33                                         ; OPCODE_I32_STORE
0000062: 02                                         ; alignment
0000063: 00                                         ; store offset
0000064: 10                                         ; OPCODE_I32_CONST
0000065: 00                                         ; i32 literal
0000066: 10                                         ; OPCODE_I32_CONST
0000067: 00                                         ; i32 literal
0000068: 33                                         ; OPCODE_I32_STORE
0000069: 03                                         ; alignment
000006a: 00                                         ; store offset
000006b: 10                                         ; OPCODE_I32_CONST
000006c: 00                                         ; i32 literal
000006d: 11                                         ; OPCODE_I64_CONST
000006e: 00                                         ; i64 literal
000006f: 34                                         ; OPCODE_I64_STORE
0000070: 00                                         ; alignment
0000071: 00                                         ; store offset
0000072: 10                                         ; OPCODE_I32_CONST
0000073: 00                                         ; i32 literal
0000074: 11                                         ; OPCODE_I64_CONST
0000075: 00                                         ; i64 literal
0000076: 34                                         ; OPCODE_I64_STORE
0000077: 01                                         ; alignment
0000078: 00                                         ; store offset
0000079: 10                                         ; OPCODE_I32_CONST
000007a: 00                                         ; i32 literal
000007b: 11                                         ; OPCODE_I64_CONST
000007c: 00                                         ; i64 literal
000007d: 34                                         ; OPCODE_I64_STORE
000007e: 02                                         ; alignment
000007f: 00                                         ; store offset
0000080: 10                                         ; OPCODE_I32_CONST
0000081: 00                                         ; i32 literal
0000082: 11                                         ; OPCODE_I64_CONST
0000083: 00                                         ; i64 literal
0000084: 34                                         ; OPCODE_I64_STORE
0000085: 03                                         ; alignment
0000086: 00                                         ; store offset
0000087: 10                                         ; OPCODE_I32_CONST
0000088: 00                                         ; i32 literal
0000089: 11                                         ; OPCODE_I64_CONST
000008a: 00                                         ; i64 literal
000008b: 30                                         ; OPCODE_I64_STORE8
000008c: 00                                         ; alignment
000008d: 00                                         ; store offset
000008e: 10                                         ; OPCODE_I32_CONST
000008f: 00                                         ; i32 literal
0000090: 11                                         ; OPCODE_I64_CONST
0000091: 00                                         ; i64 literal
0000092: 30                                         ; OPCODE_I64_STORE8
0000093: 01                                         ; alignment
0000094: 00                                         ; store offset
0000095: 10                                         ; OPCODE_I32_CONST
0000096: 00                                         ; i32 literal
0000097: 11                                         ; OPCODE_I64_CONST
0000098: 00                                         ; i64 literal
0000099: 30                                         ; OPCODE_I64_STORE8
000009a: 02                                         ; alignment
000009b: 00                                         ; store offset
000009c: 10                                         ; OPCODE_I32_CONST
000009d: 00                                         ; i32 literal
000009e: 11                                         ; OPCODE_I64_CONST
000009f: 00                                         ; i64 literal
00000a0: 30                                         ; OPCODE_I64_STORE8
00000a1: 03                                         ; alignment
00000a2: 00                                         ; store offset
00000a3: 10                                         ; OPCODE_I32_CONST
00000a4: 00                                         ; i32 literal
00000a5: 11                                         ; OPCODE_I64_CONST
00000a6: 00                                         ; i64 literal
00000a7: 31                                         ; OPCODE_I64_STORE16
00000a8: 00                                         ; alignment
00000a9: 00                                         ; store offset
00000aa: 10                                         ; OPCODE_I32_CONST
00000ab: 00                                         ; i32 literal
00000ac: 11                                         ; OPCODE_I64_CONST
00000ad: 00                                         ; i64 literal
00000ae: 31                                         ; OPCODE_I64_STORE16
00000af: 01                                         ; alignment
00000b0: 00                                         ; store offset
00000b1: 10                                         ; OPCODE_I32_CONST
00000b2: 00                                         ; i32 literal
00000b3: 11                                         ; OPCODE_I64_CONST
00000b4: 00                                         ; i64 literal
00000b5: 31                                         ; OPCODE_I64_STORE16
00000b6: 02                                         ; alignment
00000b7: 00                                         ; store offset
00000b8: 10                                         ; OPCODE_I32_CONST
00000b9: 00                                         ; i32 literal
00000ba: 11                                         ; OPCODE_I64_CONST
00000bb: 00                                         ; i64 literal
00000bc: 31                                         ; OPCODE_I64_STORE16
00000bd: 03                                         ; alignment
00000be: 00                                         ; store offset
00000bf: 10                                         ; OPCODE_I32_CONST
00000c0: 00                                         ; i32 literal
00000c1: 11                                         ; OPCODE_I64_CONST
00000c2: 00                                         ; i64 literal
00000c3: 34                                         ; OPCODE_I64_STORE
00000c4: 00                                         ; alignment
00000c5: 00                                         ; store offset
00000c6: 10                                         ; OPCODE_I32_CONST
00000c7: 00                                         ; i32 literal
00000c8: 11                                         ; OPCODE_I64_CONST
00000c9: 00                                         ; i64 literal
00000ca: 34                                         ; OPCODE_I64_STORE
00000cb: 01                                         ; alignment
00000cc: 00                                         ; store offset
00000cd: 10                                         ; OPCODE_I32_CONST
00000ce: 00                                         ; i32 literal
00000cf: 11                                         ; OPCODE_I64_CONST
00000d0: 00                                         ; i64 literal
00000d1: 34                                         ; OPCODE_I64_STORE
00000d2: 02                                         ; alignment
00000d3: 00                                         ; store offset
00000d4: 10                                         ; OPCODE_I32_CONST
00000d5: 00                                         ; i32 literal
00000d6: 11                                         ; OPCODE_I64_CONST
00000d7: 00                                         ; i64 literal
00000d8: 34                                         ; OPCODE_I64_STORE
00000d9: 03                                         ; alignment
00000da: 00                                         ; store offset
; move data: [16, db) -> [17, dc)
0000015: c501                                       ; FIXUP func body size
; move data: [14, dc) -> [15, dd)
0000013: c801                                       ; FIXUP section size
;; dump
0000000: 0061 736d 0c00 0000 0104 0140 0000 0302  
0000010: 0100 0ac8 0101 c501 0010 0010 002e 0000  
0000020: 1000 1000 2e01 0010 0010 002e 0200 1000  
0000030: 1000 2e03 0010 0010 002f 0000 1000 1000  
0000040: 2f01 0010 0010 002f 0200 1000 1000 2f03  
0000050: 0010 0010 0033 0000 1000 1000 3301 0010  
0000060: 0010 0033 0200 1000 1000 3303 0010 0011  
0000070: 0034 0000 1000 1100 3401 0010 0011 0034  
0000080: 0200 1000 1100 3403 0010 0011 0030 0000  
0000090: 1000 1100 3001 0010 0011 0030 0200 1000  
00000a0: 1100 3003 0010 0011 0031 0000 1000 1100  
00000b0: 3101 0010 0011 0031 0200 1000 1100 3103  
00000c0: 0010 0011 0034 0000 1000 1100 3401 0010  
00000d0: 0011 0034 0200 1000 1100 3403 00         
;;; STDOUT ;;)
