;;; FLAGS: -dv
(module
  (func
    (i32.store8 (i32.const 0) (i32.const 0))
    (i32.store16 (i32.const 0) (i32.const 0))
    (i32.store (i32.const 0) (i32.const 0))
    (i64.store (i32.const 0) (i64.const 0))
    (i64.store8 (i32.const 0) (i64.const 0))
    (i64.store16 (i32.const 0) (i64.const 0))
    (i64.store32 (i32.const 0) (i64.const 0))
    (f32.store (i32.const 0) (f32.const 0))
    (f64.store (i32.const 0) (f64.const 0))))
(;; STDOUT ;;;
0000000: 0061 736d                                  ; WASM_BINARY_MAGIC
0000004: 0a00 0000                                  ; WASM_BINARY_VERSION
0000008: 01                                         ; WASM_BINARY_SECTION_SIGNATURES
0000009: 01                                         ; num signatures
; signature 0
000000a: 00                                         ; num params
000000b: 00                                         ; result_type
000000c: 02                                         ; WASM_BINARY_SECTION_FUNCTIONS
000000d: 01                                         ; num functions
; function 0
000000e: 00                                         ; func flags
000000f: 0000                                       ; func signature index
0000011: 0000                                       ; func body size
0000013: 00                                         ; local decl count
0000014: 2e                                         ; OPCODE_I32_STORE_MEM8
0000015: 00                                         ; alignment
0000016: 00                                         ; store offset
0000017: 0a                                         ; OPCODE_I32_CONST
0000018: 00                                         ; i32 literal
0000019: 0a                                         ; OPCODE_I32_CONST
000001a: 00                                         ; i32 literal
000001b: 2f                                         ; OPCODE_I32_STORE_MEM16
000001c: 01                                         ; alignment
000001d: 00                                         ; store offset
000001e: 0a                                         ; OPCODE_I32_CONST
000001f: 00                                         ; i32 literal
0000020: 0a                                         ; OPCODE_I32_CONST
0000021: 00                                         ; i32 literal
0000022: 33                                         ; OPCODE_I32_STORE_MEM
0000023: 02                                         ; alignment
0000024: 00                                         ; store offset
0000025: 0a                                         ; OPCODE_I32_CONST
0000026: 00                                         ; i32 literal
0000027: 0a                                         ; OPCODE_I32_CONST
0000028: 00                                         ; i32 literal
0000029: 34                                         ; OPCODE_I64_STORE_MEM
000002a: 03                                         ; alignment
000002b: 00                                         ; store offset
000002c: 0a                                         ; OPCODE_I32_CONST
000002d: 00                                         ; i32 literal
000002e: 0b                                         ; OPCODE_I64_CONST
000002f: 00                                         ; i64 literal
0000030: 30                                         ; OPCODE_I64_STORE_MEM8
0000031: 00                                         ; alignment
0000032: 00                                         ; store offset
0000033: 0a                                         ; OPCODE_I32_CONST
0000034: 00                                         ; i32 literal
0000035: 0b                                         ; OPCODE_I64_CONST
0000036: 00                                         ; i64 literal
0000037: 31                                         ; OPCODE_I64_STORE_MEM16
0000038: 01                                         ; alignment
0000039: 00                                         ; store offset
000003a: 0a                                         ; OPCODE_I32_CONST
000003b: 00                                         ; i32 literal
000003c: 0b                                         ; OPCODE_I64_CONST
000003d: 00                                         ; i64 literal
000003e: 32                                         ; OPCODE_I64_STORE_MEM32
000003f: 02                                         ; alignment
0000040: 00                                         ; store offset
0000041: 0a                                         ; OPCODE_I32_CONST
0000042: 00                                         ; i32 literal
0000043: 0b                                         ; OPCODE_I64_CONST
0000044: 00                                         ; i64 literal
0000045: 35                                         ; OPCODE_F32_STORE_MEM
0000046: 02                                         ; alignment
0000047: 00                                         ; store offset
0000048: 0a                                         ; OPCODE_I32_CONST
0000049: 00                                         ; i32 literal
000004a: 0d                                         ; OPCODE_F32_CONST
000004b: 0000 0000                                  ; f32 literal
000004f: 36                                         ; OPCODE_F64_STORE_MEM
0000050: 03                                         ; alignment
0000051: 00                                         ; store offset
0000052: 0a                                         ; OPCODE_I32_CONST
0000053: 00                                         ; i32 literal
0000054: 0c                                         ; OPCODE_F64_CONST
0000055: 0000 0000 0000 0000                        ; f64 literal
0000011: 4a00                                       ; FIXUP func body size
000005d: 06                                         ; WASM_BINARY_SECTION_END
;; dump
0000000: 0061 736d 0a00 0000 0101 0000 0201 0000  
0000010: 004a 0000 2e00 000a 000a 002f 0100 0a00  
0000020: 0a00 3302 000a 000a 0034 0300 0a00 0b00  
0000030: 3000 000a 000b 0031 0100 0a00 0b00 3202  
0000040: 000a 000b 0035 0200 0a00 0d00 0000 0036  
0000050: 0300 0a00 0c00 0000 0000 0000 0006       
;;; STDOUT ;;)
