;;; FLAGS: -dv
(module
  (func
    (i32.store8 align=1 (i32.const 0) (i32.const 0))
    (i32.store8 align=2 (i32.const 0) (i32.const 0))
    (i32.store8 align=4 (i32.const 0) (i32.const 0))
    (i32.store8 align=8 (i32.const 0) (i32.const 0))

    (i32.store16 align=1 (i32.const 0) (i32.const 0))
    (i32.store16 align=2 (i32.const 0) (i32.const 0))
    (i32.store16 align=4 (i32.const 0) (i32.const 0))
    (i32.store16 align=8 (i32.const 0) (i32.const 0))

    (i32.store align=1 (i32.const 0) (i32.const 0))
    (i32.store align=2 (i32.const 0) (i32.const 0))
    (i32.store align=4 (i32.const 0) (i32.const 0))
    (i32.store align=8 (i32.const 0) (i32.const 0))

    (i64.store align=1 (i32.const 0) (i64.const 0))
    (i64.store align=2 (i32.const 0) (i64.const 0))
    (i64.store align=4 (i32.const 0) (i64.const 0))
    (i64.store align=8 (i32.const 0) (i64.const 0))

    (i64.store8 align=1 (i32.const 0) (i64.const 0))
    (i64.store8 align=2 (i32.const 0) (i64.const 0))
    (i64.store8 align=4 (i32.const 0) (i64.const 0))
    (i64.store8 align=8 (i32.const 0) (i64.const 0))

    (i64.store16 align=1 (i32.const 0) (i64.const 0))
    (i64.store16 align=2 (i32.const 0) (i64.const 0))
    (i64.store16 align=4 (i32.const 0) (i64.const 0))
    (i64.store16 align=8 (i32.const 0) (i64.const 0))

    (i64.store align=1 (i32.const 0) (i64.const 0))
    (i64.store align=2 (i32.const 0) (i64.const 0))
    (i64.store align=4 (i32.const 0) (i64.const 0))
    (i64.store align=8 (i32.const 0) (i64.const 0))))
(;; STDOUT ;;;
0000000: 0061 736d                                  ; WASM_BINARY_MAGIC
0000004: 0a00 0000                                  ; WASM_BINARY_VERSION
0000008: 01                                         ; WASM_BINARY_SECTION_SIGNATURES
0000009: 01                                         ; num signatures
; signature 0
000000a: 00                                         ; num params
000000b: 00                                         ; result_type
000000c: 02                                         ; WASM_BINARY_SECTION_FUNCTIONS
000000d: 01                                         ; num functions
; function 0
000000e: 00                                         ; func flags
000000f: 0000                                       ; func signature index
0000011: 0000                                       ; func body size
0000013: 00                                         ; local decl count
0000014: 2e                                         ; OPCODE_I32_STORE_MEM8
0000015: 01                                         ; alignment
0000016: 00                                         ; store offset
0000017: 0a                                         ; OPCODE_I32_CONST
0000018: 00                                         ; i32 literal
0000019: 0a                                         ; OPCODE_I32_CONST
000001a: 00                                         ; i32 literal
000001b: 2e                                         ; OPCODE_I32_STORE_MEM8
000001c: 02                                         ; alignment
000001d: 00                                         ; store offset
000001e: 0a                                         ; OPCODE_I32_CONST
000001f: 00                                         ; i32 literal
0000020: 0a                                         ; OPCODE_I32_CONST
0000021: 00                                         ; i32 literal
0000022: 2e                                         ; OPCODE_I32_STORE_MEM8
0000023: 03                                         ; alignment
0000024: 00                                         ; store offset
0000025: 0a                                         ; OPCODE_I32_CONST
0000026: 00                                         ; i32 literal
0000027: 0a                                         ; OPCODE_I32_CONST
0000028: 00                                         ; i32 literal
0000029: 2e                                         ; OPCODE_I32_STORE_MEM8
000002a: 04                                         ; alignment
000002b: 00                                         ; store offset
000002c: 0a                                         ; OPCODE_I32_CONST
000002d: 00                                         ; i32 literal
000002e: 0a                                         ; OPCODE_I32_CONST
000002f: 00                                         ; i32 literal
0000030: 2f                                         ; OPCODE_I32_STORE_MEM16
0000031: 01                                         ; alignment
0000032: 00                                         ; store offset
0000033: 0a                                         ; OPCODE_I32_CONST
0000034: 00                                         ; i32 literal
0000035: 0a                                         ; OPCODE_I32_CONST
0000036: 00                                         ; i32 literal
0000037: 2f                                         ; OPCODE_I32_STORE_MEM16
0000038: 02                                         ; alignment
0000039: 00                                         ; store offset
000003a: 0a                                         ; OPCODE_I32_CONST
000003b: 00                                         ; i32 literal
000003c: 0a                                         ; OPCODE_I32_CONST
000003d: 00                                         ; i32 literal
000003e: 2f                                         ; OPCODE_I32_STORE_MEM16
000003f: 03                                         ; alignment
0000040: 00                                         ; store offset
0000041: 0a                                         ; OPCODE_I32_CONST
0000042: 00                                         ; i32 literal
0000043: 0a                                         ; OPCODE_I32_CONST
0000044: 00                                         ; i32 literal
0000045: 2f                                         ; OPCODE_I32_STORE_MEM16
0000046: 04                                         ; alignment
0000047: 00                                         ; store offset
0000048: 0a                                         ; OPCODE_I32_CONST
0000049: 00                                         ; i32 literal
000004a: 0a                                         ; OPCODE_I32_CONST
000004b: 00                                         ; i32 literal
000004c: 33                                         ; OPCODE_I32_STORE_MEM
000004d: 01                                         ; alignment
000004e: 00                                         ; store offset
000004f: 0a                                         ; OPCODE_I32_CONST
0000050: 00                                         ; i32 literal
0000051: 0a                                         ; OPCODE_I32_CONST
0000052: 00                                         ; i32 literal
0000053: 33                                         ; OPCODE_I32_STORE_MEM
0000054: 02                                         ; alignment
0000055: 00                                         ; store offset
0000056: 0a                                         ; OPCODE_I32_CONST
0000057: 00                                         ; i32 literal
0000058: 0a                                         ; OPCODE_I32_CONST
0000059: 00                                         ; i32 literal
000005a: 33                                         ; OPCODE_I32_STORE_MEM
000005b: 03                                         ; alignment
000005c: 00                                         ; store offset
000005d: 0a                                         ; OPCODE_I32_CONST
000005e: 00                                         ; i32 literal
000005f: 0a                                         ; OPCODE_I32_CONST
0000060: 00                                         ; i32 literal
0000061: 33                                         ; OPCODE_I32_STORE_MEM
0000062: 04                                         ; alignment
0000063: 00                                         ; store offset
0000064: 0a                                         ; OPCODE_I32_CONST
0000065: 00                                         ; i32 literal
0000066: 0a                                         ; OPCODE_I32_CONST
0000067: 00                                         ; i32 literal
0000068: 34                                         ; OPCODE_I64_STORE_MEM
0000069: 01                                         ; alignment
000006a: 00                                         ; store offset
000006b: 0a                                         ; OPCODE_I32_CONST
000006c: 00                                         ; i32 literal
000006d: 0b                                         ; OPCODE_I64_CONST
000006e: 00                                         ; i64 literal
000006f: 34                                         ; OPCODE_I64_STORE_MEM
0000070: 02                                         ; alignment
0000071: 00                                         ; store offset
0000072: 0a                                         ; OPCODE_I32_CONST
0000073: 00                                         ; i32 literal
0000074: 0b                                         ; OPCODE_I64_CONST
0000075: 00                                         ; i64 literal
0000076: 34                                         ; OPCODE_I64_STORE_MEM
0000077: 03                                         ; alignment
0000078: 00                                         ; store offset
0000079: 0a                                         ; OPCODE_I32_CONST
000007a: 00                                         ; i32 literal
000007b: 0b                                         ; OPCODE_I64_CONST
000007c: 00                                         ; i64 literal
000007d: 34                                         ; OPCODE_I64_STORE_MEM
000007e: 04                                         ; alignment
000007f: 00                                         ; store offset
0000080: 0a                                         ; OPCODE_I32_CONST
0000081: 00                                         ; i32 literal
0000082: 0b                                         ; OPCODE_I64_CONST
0000083: 00                                         ; i64 literal
0000084: 30                                         ; OPCODE_I64_STORE_MEM8
0000085: 01                                         ; alignment
0000086: 00                                         ; store offset
0000087: 0a                                         ; OPCODE_I32_CONST
0000088: 00                                         ; i32 literal
0000089: 0b                                         ; OPCODE_I64_CONST
000008a: 00                                         ; i64 literal
000008b: 30                                         ; OPCODE_I64_STORE_MEM8
000008c: 02                                         ; alignment
000008d: 00                                         ; store offset
000008e: 0a                                         ; OPCODE_I32_CONST
000008f: 00                                         ; i32 literal
0000090: 0b                                         ; OPCODE_I64_CONST
0000091: 00                                         ; i64 literal
0000092: 30                                         ; OPCODE_I64_STORE_MEM8
0000093: 03                                         ; alignment
0000094: 00                                         ; store offset
0000095: 0a                                         ; OPCODE_I32_CONST
0000096: 00                                         ; i32 literal
0000097: 0b                                         ; OPCODE_I64_CONST
0000098: 00                                         ; i64 literal
0000099: 30                                         ; OPCODE_I64_STORE_MEM8
000009a: 04                                         ; alignment
000009b: 00                                         ; store offset
000009c: 0a                                         ; OPCODE_I32_CONST
000009d: 00                                         ; i32 literal
000009e: 0b                                         ; OPCODE_I64_CONST
000009f: 00                                         ; i64 literal
00000a0: 31                                         ; OPCODE_I64_STORE_MEM16
00000a1: 01                                         ; alignment
00000a2: 00                                         ; store offset
00000a3: 0a                                         ; OPCODE_I32_CONST
00000a4: 00                                         ; i32 literal
00000a5: 0b                                         ; OPCODE_I64_CONST
00000a6: 00                                         ; i64 literal
00000a7: 31                                         ; OPCODE_I64_STORE_MEM16
00000a8: 02                                         ; alignment
00000a9: 00                                         ; store offset
00000aa: 0a                                         ; OPCODE_I32_CONST
00000ab: 00                                         ; i32 literal
00000ac: 0b                                         ; OPCODE_I64_CONST
00000ad: 00                                         ; i64 literal
00000ae: 31                                         ; OPCODE_I64_STORE_MEM16
00000af: 03                                         ; alignment
00000b0: 00                                         ; store offset
00000b1: 0a                                         ; OPCODE_I32_CONST
00000b2: 00                                         ; i32 literal
00000b3: 0b                                         ; OPCODE_I64_CONST
00000b4: 00                                         ; i64 literal
00000b5: 31                                         ; OPCODE_I64_STORE_MEM16
00000b6: 04                                         ; alignment
00000b7: 00                                         ; store offset
00000b8: 0a                                         ; OPCODE_I32_CONST
00000b9: 00                                         ; i32 literal
00000ba: 0b                                         ; OPCODE_I64_CONST
00000bb: 00                                         ; i64 literal
00000bc: 34                                         ; OPCODE_I64_STORE_MEM
00000bd: 01                                         ; alignment
00000be: 00                                         ; store offset
00000bf: 0a                                         ; OPCODE_I32_CONST
00000c0: 00                                         ; i32 literal
00000c1: 0b                                         ; OPCODE_I64_CONST
00000c2: 00                                         ; i64 literal
00000c3: 34                                         ; OPCODE_I64_STORE_MEM
00000c4: 02                                         ; alignment
00000c5: 00                                         ; store offset
00000c6: 0a                                         ; OPCODE_I32_CONST
00000c7: 00                                         ; i32 literal
00000c8: 0b                                         ; OPCODE_I64_CONST
00000c9: 00                                         ; i64 literal
00000ca: 34                                         ; OPCODE_I64_STORE_MEM
00000cb: 03                                         ; alignment
00000cc: 00                                         ; store offset
00000cd: 0a                                         ; OPCODE_I32_CONST
00000ce: 00                                         ; i32 literal
00000cf: 0b                                         ; OPCODE_I64_CONST
00000d0: 00                                         ; i64 literal
00000d1: 34                                         ; OPCODE_I64_STORE_MEM
00000d2: 04                                         ; alignment
00000d3: 00                                         ; store offset
00000d4: 0a                                         ; OPCODE_I32_CONST
00000d5: 00                                         ; i32 literal
00000d6: 0b                                         ; OPCODE_I64_CONST
00000d7: 00                                         ; i64 literal
0000011: c500                                       ; FIXUP func body size
00000d8: 06                                         ; WASM_BINARY_SECTION_END
;; dump
0000000: 0061 736d 0a00 0000 0101 0000 0201 0000  
0000010: 00c5 0000 2e01 000a 000a 002e 0200 0a00  
0000020: 0a00 2e03 000a 000a 002e 0400 0a00 0a00  
0000030: 2f01 000a 000a 002f 0200 0a00 0a00 2f03  
0000040: 000a 000a 002f 0400 0a00 0a00 3301 000a  
0000050: 000a 0033 0200 0a00 0a00 3303 000a 000a  
0000060: 0033 0400 0a00 0a00 3401 000a 000b 0034  
0000070: 0200 0a00 0b00 3403 000a 000b 0034 0400  
0000080: 0a00 0b00 3001 000a 000b 0030 0200 0a00  
0000090: 0b00 3003 000a 000b 0030 0400 0a00 0b00  
00000a0: 3101 000a 000b 0031 0200 0a00 0b00 3103  
00000b0: 000a 000b 0031 0400 0a00 0b00 3401 000a  
00000c0: 000b 0034 0200 0a00 0b00 3403 000a 000b  
00000d0: 0034 0400 0a00 0b00 06                   
;;; STDOUT ;;)
