;;; FLAGS: -dv
(module
  (func
    (i32.store8 (i32.const 0) (i32.const 0))
    (i32.store16 (i32.const 0) (i32.const 0))
    (i32.store (i32.const 0) (i32.const 0))
    (i64.store (i32.const 0) (i64.const 0))
    (i64.store8 (i32.const 0) (i64.const 0))
    (i64.store16 (i32.const 0) (i64.const 0))
    (i64.store32 (i32.const 0) (i64.const 0))
    (f32.store (i32.const 0) (f32.const 0))
    (f64.store (i32.const 0) (f64.const 0))))
(;; STDOUT ;;;
0000000: 01                                         ; WASM_BINARY_SECTION_SIGNATURES
0000001: 01                                         ; num signatures
; signature 0
0000002: 00                                         ; num params
0000003: 00                                         ; result_type
0000004: 02                                         ; WASM_BINARY_SECTION_FUNCTIONS
0000005: 01                                         ; num functions
; function 0
0000006: 00                                         ; func flags
0000007: 0000                                       ; func signature index
0000009: 0000                                       ; func body size
000000b: 2e                                         ; OPCODE_I32_STORE_MEM8
000000c: 00                                         ; store access byte
000000d: 09                                         ; OPCODE_I8_CONST
000000e: 00                                         ; u8 literal
000000f: 09                                         ; OPCODE_I8_CONST
0000010: 00                                         ; u8 literal
0000011: 2f                                         ; OPCODE_I32_STORE_MEM16
0000012: 00                                         ; store access byte
0000013: 09                                         ; OPCODE_I8_CONST
0000014: 00                                         ; u8 literal
0000015: 09                                         ; OPCODE_I8_CONST
0000016: 00                                         ; u8 literal
0000017: 33                                         ; OPCODE_I32_STORE_MEM
0000018: 00                                         ; store access byte
0000019: 09                                         ; OPCODE_I8_CONST
000001a: 00                                         ; u8 literal
000001b: 09                                         ; OPCODE_I8_CONST
000001c: 00                                         ; u8 literal
000001d: 34                                         ; OPCODE_I64_STORE_MEM
000001e: 00                                         ; store access byte
000001f: 09                                         ; OPCODE_I8_CONST
0000020: 00                                         ; u8 literal
0000021: 0b                                         ; OPCODE_I64_CONST
0000022: 0000 0000 0000 0000                        ; u64 literal
000002a: 30                                         ; OPCODE_I64_STORE_MEM8
000002b: 00                                         ; store access byte
000002c: 09                                         ; OPCODE_I8_CONST
000002d: 00                                         ; u8 literal
000002e: 0b                                         ; OPCODE_I64_CONST
000002f: 0000 0000 0000 0000                        ; u64 literal
0000037: 31                                         ; OPCODE_I64_STORE_MEM16
0000038: 00                                         ; store access byte
0000039: 09                                         ; OPCODE_I8_CONST
000003a: 00                                         ; u8 literal
000003b: 0b                                         ; OPCODE_I64_CONST
000003c: 0000 0000 0000 0000                        ; u64 literal
0000044: 32                                         ; OPCODE_I64_STORE_MEM32
0000045: 00                                         ; store access byte
0000046: 09                                         ; OPCODE_I8_CONST
0000047: 00                                         ; u8 literal
0000048: 0b                                         ; OPCODE_I64_CONST
0000049: 0000 0000 0000 0000                        ; u64 literal
0000051: 35                                         ; OPCODE_F32_STORE_MEM
0000052: 00                                         ; store access byte
0000053: 09                                         ; OPCODE_I8_CONST
0000054: 00                                         ; u8 literal
0000055: 0d                                         ; OPCODE_F32_CONST
0000056: 0000 0000                                  ; f32 literal
000005a: 36                                         ; OPCODE_F64_STORE_MEM
000005b: 00                                         ; store access byte
000005c: 09                                         ; OPCODE_I8_CONST
000005d: 00                                         ; u8 literal
000005e: 0c                                         ; OPCODE_F64_CONST
000005f: 0000 0000 0000 0000                        ; f64 literal
0000009: 5c00                                       ; FIXUP func body size
0000067: 06                                         ; WASM_BINARY_SECTION_END
;; dump
0000000: 0101 0000 0201 0000 005c 002e 0009 0009  
0000010: 002f 0009 0009 0033 0009 0009 0034 0009  
0000020: 000b 0000 0000 0000 0000 3000 0900 0b00  
0000030: 0000 0000 0000 0031 0009 000b 0000 0000  
0000040: 0000 0000 3200 0900 0b00 0000 0000 0000  
0000050: 0035 0009 000d 0000 0000 3600 0900 0c00  
0000060: 0000 0000 0000 0006                      
;;; STDOUT ;;)
