;;; FLAGS: -dv
(module
  (func
    (i32.store8 (i32.const 0) (i32.const 0))
    (i32.store16 (i32.const 0) (i32.const 0))
    (i32.store (i32.const 0) (i32.const 0))
    (i64.store (i32.const 0) (i64.const 0))
    (i64.store8 (i32.const 0) (i64.const 0))
    (i64.store16 (i32.const 0) (i64.const 0))
    (i64.store32 (i32.const 0) (i64.const 0))
    (f32.store (i32.const 0) (f32.const 0))
    (f64.store (i32.const 0) (f64.const 0))))
(;; STDOUT ;;;
0000000: 0061 736d                                  ; WASM_BINARY_MAGIC
0000004: 0a00 0000                                  ; WASM_BINARY_VERSION
0000008: 01                                         ; WASM_BINARY_SECTION_SIGNATURES
0000009: 01                                         ; num signatures
; signature 0
000000a: 00                                         ; num params
000000b: 00                                         ; result_type
000000c: 02                                         ; WASM_BINARY_SECTION_FUNCTIONS
000000d: 01                                         ; num functions
; function 0
000000e: 00                                         ; func flags
000000f: 0000                                       ; func signature index
0000011: 0000                                       ; func body size
0000013: 00                                         ; local decl count
0000014: 2e                                         ; OPCODE_I32_STORE_MEM8
0000015: 00                                         ; store access byte
0000016: 0a                                         ; OPCODE_I32_CONST
0000017: 00                                         ; i32 literal
0000018: 0a                                         ; OPCODE_I32_CONST
0000019: 00                                         ; i32 literal
000001a: 2f                                         ; OPCODE_I32_STORE_MEM16
000001b: 00                                         ; store access byte
000001c: 0a                                         ; OPCODE_I32_CONST
000001d: 00                                         ; i32 literal
000001e: 0a                                         ; OPCODE_I32_CONST
000001f: 00                                         ; i32 literal
0000020: 33                                         ; OPCODE_I32_STORE_MEM
0000021: 00                                         ; store access byte
0000022: 0a                                         ; OPCODE_I32_CONST
0000023: 00                                         ; i32 literal
0000024: 0a                                         ; OPCODE_I32_CONST
0000025: 00                                         ; i32 literal
0000026: 34                                         ; OPCODE_I64_STORE_MEM
0000027: 00                                         ; store access byte
0000028: 0a                                         ; OPCODE_I32_CONST
0000029: 00                                         ; i32 literal
000002a: 0b                                         ; OPCODE_I64_CONST
000002b: 00                                         ; i64 literal
000002c: 30                                         ; OPCODE_I64_STORE_MEM8
000002d: 00                                         ; store access byte
000002e: 0a                                         ; OPCODE_I32_CONST
000002f: 00                                         ; i32 literal
0000030: 0b                                         ; OPCODE_I64_CONST
0000031: 00                                         ; i64 literal
0000032: 31                                         ; OPCODE_I64_STORE_MEM16
0000033: 00                                         ; store access byte
0000034: 0a                                         ; OPCODE_I32_CONST
0000035: 00                                         ; i32 literal
0000036: 0b                                         ; OPCODE_I64_CONST
0000037: 00                                         ; i64 literal
0000038: 32                                         ; OPCODE_I64_STORE_MEM32
0000039: 00                                         ; store access byte
000003a: 0a                                         ; OPCODE_I32_CONST
000003b: 00                                         ; i32 literal
000003c: 0b                                         ; OPCODE_I64_CONST
000003d: 00                                         ; i64 literal
000003e: 35                                         ; OPCODE_F32_STORE_MEM
000003f: 00                                         ; store access byte
0000040: 0a                                         ; OPCODE_I32_CONST
0000041: 00                                         ; i32 literal
0000042: 0d                                         ; OPCODE_F32_CONST
0000043: 0000 0000                                  ; f32 literal
0000047: 36                                         ; OPCODE_F64_STORE_MEM
0000048: 00                                         ; store access byte
0000049: 0a                                         ; OPCODE_I32_CONST
000004a: 00                                         ; i32 literal
000004b: 0c                                         ; OPCODE_F64_CONST
000004c: 0000 0000 0000 0000                        ; f64 literal
0000011: 4100                                       ; FIXUP func body size
0000054: 06                                         ; WASM_BINARY_SECTION_END
;; dump
0000000: 0061 736d 0a00 0000 0101 0000 0201 0000  
0000010: 0041 0000 2e00 0a00 0a00 2f00 0a00 0a00  
0000020: 3300 0a00 0a00 3400 0a00 0b00 3000 0a00  
0000030: 0b00 3100 0a00 0b00 3200 0a00 0b00 3500  
0000040: 0a00 0d00 0000 0036 000a 000c 0000 0000  
0000050: 0000 0000 06                             
;;; STDOUT ;;)
