# FLAGS: -dv
(module
  (func
    (i32.store8 (i32.const 0) (i32.const 0))
    (i32.store16 (i32.const 0) (i32.const 0))
    (i32.store (i32.const 0) (i32.const 0))
    (i64.store (i32.const 0) (i64.const 0))
    (f32.store (i32.const 0) (f32.const 0))
    (f64.store (i32.const 0) (f64.const 0))))
# STDOUT:
0000000: 00                                         ; mem size log 2
0000001: 01                                         ; export mem
0000002: 0000                                       ; num globals
0000004: 0100                                       ; num funcs
0000006: 0000                                       ; num data segments
; function header 0
0000008: 00                                         ; func num args
0000009: 00                                         ; func result type
000000a: 0000 0000                                  ; func name offset
000000e: 0000 0000                                  ; func code start offset
0000012: 0000 0000                                  ; func code end offset
0000016: 0000                                       ; num local i32
0000018: 0000                                       ; num local i64
000001a: 0000                                       ; num local f32
000001c: 0000                                       ; num local f64
000001e: 00                                         ; export func
000001f: 00                                         ; func external
; function data 0
000000e: 2000 0000                                  ; FIXUP func code start offset
0000020: 30                                         ; OPCODE_I32_STORE_I32
0000021: 04                                         ; store access byte
0000022: 10                                         ; OPCODE_I8_CONST
0000023: 00                                         ; u8 literal
0000024: 10                                         ; OPCODE_I8_CONST
0000025: 00                                         ; u8 literal
0000026: 30                                         ; OPCODE_I32_STORE_I32
0000027: 05                                         ; store access byte
0000028: 10                                         ; OPCODE_I8_CONST
0000029: 00                                         ; u8 literal
000002a: 10                                         ; OPCODE_I8_CONST
000002b: 00                                         ; u8 literal
000002c: 30                                         ; OPCODE_I32_STORE_I32
000002d: 06                                         ; store access byte
000002e: 10                                         ; OPCODE_I8_CONST
000002f: 00                                         ; u8 literal
0000030: 10                                         ; OPCODE_I8_CONST
0000031: 00                                         ; u8 literal
0000032: 31                                         ; OPCODE_I64_STORE_I32
0000033: 07                                         ; store access byte
0000034: 10                                         ; OPCODE_I8_CONST
0000035: 00                                         ; u8 literal
0000036: 12                                         ; OPCODE_I64_CONST
0000037: 0000 0000 0000 0000                        ; u64 literal
000003f: 32                                         ; OPCODE_F32_STORE_I32
0000040: 00                                         ; store access byte
0000041: 10                                         ; OPCODE_I8_CONST
0000042: 00                                         ; u8 literal
0000043: 14                                         ; OPCODE_F32_CONST
0000044: 0000 0000                                  ; f32 literal
0000048: 33                                         ; OPCODE_F64_STORE_I32
0000049: 00                                         ; store access byte
000004a: 10                                         ; OPCODE_I8_CONST
000004b: 00                                         ; u8 literal
000004c: 13                                         ; OPCODE_F64_CONST
000004d: 0000 0000 0000 0000                        ; f64 literal
0000012: 5500 0000                                  ; FIXUP func code end offset
; names
0000000: 0001 0000 0100 0000 0000 0000 0000 2000  .............. .
0000010: 0000 5500 0000 0000 0000 0000 0000 0000  ..U.............
0000020: 3004 1000 1000 3005 1000 1000 3006 1000  0.....0.....0...
0000030: 1000 3107 1000 1200 0000 0000 0000 0032  ..1............2
0000040: 0010 0014 0000 0000 3300 1000 1300 0000  ........3.......
0000050: 0000 0000 00                             .....
