;;; FLAGS: -dv
(module
  (func
    (i32.store8 (i32.const 0) (i32.const 0))
    (i32.store16 (i32.const 0) (i32.const 0))
    (i32.store (i32.const 0) (i32.const 0))
    (i64.store (i32.const 0) (i64.const 0))
    (i64.store8 (i32.const 0) (i64.const 0))
    (i64.store16 (i32.const 0) (i64.const 0))
    (i64.store32 (i32.const 0) (i64.const 0))
    (f32.store (i32.const 0) (f32.const 0))
    (f64.store (i32.const 0) (f64.const 0))))
(;; STDOUT ;;;
0000000: 0061 736d                                  ; WASM_BINARY_MAGIC
0000004: 0a00 0000                                  ; WASM_BINARY_VERSION
; section "signatures"
0000008: 00                                         ; section size (guess)
0000009: 0a                                         ; string length
000000a: 7369 676e 6174 7572 6573                   ; section id: "signatures"
0000014: 01                                         ; num signatures
; signature 0
0000015: 00                                         ; num params
0000016: 00                                         ; result_type
0000008: 0e                                         ; FIXUP section size
; section "function_signatures"
0000017: 00                                         ; section size (guess)
0000018: 13                                         ; string length
0000019: 6675 6e63 7469 6f6e 5f73 6967 6e61 7475  
0000029: 7265 73                                    ; section id: "function_signatures"
000002c: 01                                         ; num functions
000002d: 00                                         ; function 0 signature index
0000017: 16                                         ; FIXUP section size
; section "function_bodies"
000002e: 00                                         ; section size (guess)
000002f: 0f                                         ; string length
0000030: 6675 6e63 7469 6f6e 5f62 6f64 6965 73      ; section id: "function_bodies"
000003f: 01                                         ; num functions
; function body 0
0000040: 00                                         ; func body size (guess)
0000041: 00                                         ; local decl count
0000042: 2e                                         ; OPCODE_I32_STORE8
0000043: 00                                         ; alignment
0000044: 00                                         ; store offset
0000045: 0a                                         ; OPCODE_I32_CONST
0000046: 00                                         ; i32 literal
0000047: 0a                                         ; OPCODE_I32_CONST
0000048: 00                                         ; i32 literal
0000049: 2f                                         ; OPCODE_I32_STORE16
000004a: 01                                         ; alignment
000004b: 00                                         ; store offset
000004c: 0a                                         ; OPCODE_I32_CONST
000004d: 00                                         ; i32 literal
000004e: 0a                                         ; OPCODE_I32_CONST
000004f: 00                                         ; i32 literal
0000050: 33                                         ; OPCODE_I32_STORE
0000051: 02                                         ; alignment
0000052: 00                                         ; store offset
0000053: 0a                                         ; OPCODE_I32_CONST
0000054: 00                                         ; i32 literal
0000055: 0a                                         ; OPCODE_I32_CONST
0000056: 00                                         ; i32 literal
0000057: 34                                         ; OPCODE_I64_STORE
0000058: 03                                         ; alignment
0000059: 00                                         ; store offset
000005a: 0a                                         ; OPCODE_I32_CONST
000005b: 00                                         ; i32 literal
000005c: 0b                                         ; OPCODE_I64_CONST
000005d: 00                                         ; i64 literal
000005e: 30                                         ; OPCODE_I64_STORE8
000005f: 00                                         ; alignment
0000060: 00                                         ; store offset
0000061: 0a                                         ; OPCODE_I32_CONST
0000062: 00                                         ; i32 literal
0000063: 0b                                         ; OPCODE_I64_CONST
0000064: 00                                         ; i64 literal
0000065: 31                                         ; OPCODE_I64_STORE16
0000066: 01                                         ; alignment
0000067: 00                                         ; store offset
0000068: 0a                                         ; OPCODE_I32_CONST
0000069: 00                                         ; i32 literal
000006a: 0b                                         ; OPCODE_I64_CONST
000006b: 00                                         ; i64 literal
000006c: 32                                         ; OPCODE_I64_STORE32
000006d: 02                                         ; alignment
000006e: 00                                         ; store offset
000006f: 0a                                         ; OPCODE_I32_CONST
0000070: 00                                         ; i32 literal
0000071: 0b                                         ; OPCODE_I64_CONST
0000072: 00                                         ; i64 literal
0000073: 35                                         ; OPCODE_F32_STORE
0000074: 02                                         ; alignment
0000075: 00                                         ; store offset
0000076: 0a                                         ; OPCODE_I32_CONST
0000077: 00                                         ; i32 literal
0000078: 0d                                         ; OPCODE_F32_CONST
0000079: 0000 0000                                  ; f32 literal
000007d: 36                                         ; OPCODE_F64_STORE
000007e: 03                                         ; alignment
000007f: 00                                         ; store offset
0000080: 0a                                         ; OPCODE_I32_CONST
0000081: 00                                         ; i32 literal
0000082: 0c                                         ; OPCODE_F64_CONST
0000083: 0000 0000 0000 0000                        ; f64 literal
0000040: 4a                                         ; FIXUP func body size
000002e: 5c                                         ; FIXUP section size
;; dump
0000000: 0061 736d 0a00 0000 0e0a 7369 676e 6174  
0000010: 7572 6573 0100 0016 1366 756e 6374 696f  
0000020: 6e5f 7369 676e 6174 7572 6573 0100 5c0f  
0000030: 6675 6e63 7469 6f6e 5f62 6f64 6965 7301  
0000040: 4a00 2e00 000a 000a 002f 0100 0a00 0a00  
0000050: 3302 000a 000a 0034 0300 0a00 0b00 3000  
0000060: 000a 000b 0031 0100 0a00 0b00 3202 000a  
0000070: 000b 0035 0200 0a00 0d00 0000 0036 0300  
0000080: 0a00 0c00 0000 0000 0000 00              
;;; STDOUT ;;)
