;;; FLAGS: -dv
(module (func) (export "tab:\t newline:\n slash:\\ quote:\' double:\"" 0))
(;; STDOUT ;;;
0000000: 0061 736d                                  ; WASM_BINARY_MAGIC
0000004: 0a00 0000                                  ; WASM_BINARY_VERSION
; section "signatures"
0000008: 00                                         ; section size (guess)
0000009: 0a                                         ; string length
000000a: 7369 676e 6174 7572 6573                   ; section id: "signatures"
0000014: 01                                         ; num signatures
; signature 0
0000015: 00                                         ; num params
0000016: 00                                         ; result_type
0000008: 0e                                         ; FIXUP section size
; section "function_signatures"
0000017: 00                                         ; section size (guess)
0000018: 13                                         ; string length
0000019: 6675 6e63 7469 6f6e 5f73 6967 6e61 7475  
0000029: 7265 73                                    ; section id: "function_signatures"
000002c: 01                                         ; num functions
000002d: 00                                         ; function 0 signature index
0000017: 16                                         ; FIXUP section size
; section "export_table"
000002e: 00                                         ; section size (guess)
000002f: 0c                                         ; string length
0000030: 6578 706f 7274 5f74 6162 6c65              ; section id: "export_table"
000003c: 01                                         ; num exports
000003d: 00                                         ; export func index
000003e: 28                                         ; string length
000003f: 7461 623a 0920 6e65 776c 696e 653a 0a20  tab:. newline:. 
000004f: 736c 6173 683a 5c20 7175 6f74 653a 2720  slash:\ quote:' 
000005f: 646f 7562 6c65 3a22                      double:"  ; export name
000002e: 38                                         ; FIXUP section size
; section "function_bodies"
0000067: 00                                         ; section size (guess)
0000068: 0f                                         ; string length
0000069: 6675 6e63 7469 6f6e 5f62 6f64 6965 73      ; section id: "function_bodies"
0000078: 01                                         ; num functions
; function body 0
0000079: 00                                         ; func body size (guess)
000007a: 00                                         ; local decl count
0000079: 01                                         ; FIXUP func body size
0000067: 13                                         ; FIXUP section size
;; dump
0000000: 0061 736d 0a00 0000 0e0a 7369 676e 6174  
0000010: 7572 6573 0100 0016 1366 756e 6374 696f  
0000020: 6e5f 7369 676e 6174 7572 6573 0100 380c  
0000030: 6578 706f 7274 5f74 6162 6c65 0100 2874  
0000040: 6162 3a09 206e 6577 6c69 6e65 3a0a 2073  
0000050: 6c61 7368 3a5c 2071 756f 7465 3a27 2064  
0000060: 6f75 626c 653a 2213 0f66 756e 6374 696f  
0000070: 6e5f 626f 6469 6573 0101 00              
;;; STDOUT ;;)
