;;; FLAGS: -dv
(module
  (type $t (func (param i32)))
  (func (type $t))
  (func (param i32 i64))
  (func (result f64) (f64.const 0))
  (table 0 0 1 2))
(;; STDOUT ;;;
0000000: 0061 736d                                  ; WASM_BINARY_MAGIC
0000004: 0a00 0000                                  ; WASM_BINARY_VERSION
0000008: 01                                         ; WASM_BINARY_SECTION_SIGNATURES
0000009: 03                                         ; num signatures
; signature 0
000000a: 01                                         ; num params
000000b: 00                                         ; result_type
000000c: 01                                         ; param type
; signature 1
000000d: 02                                         ; num params
000000e: 00                                         ; result_type
000000f: 01                                         ; param type
0000010: 02                                         ; param type
; signature 2
0000011: 00                                         ; num params
0000012: 04                                         ; result_type
0000013: 0a                                         ; WASM_BINARY_SECTION_FUNCTION_SIGNATURES
0000014: 03                                         ; num functions
0000015: 00                                         ; function 0 signature index
0000016: 01                                         ; function 1 signature index
0000017: 02                                         ; function 2 signature index
0000018: 0b                                         ; WASM_BINARY_SECTION_FUNCTION_BODIES
0000019: 03                                         ; num functions
; function body 0
000001a: 00                                         ; func body size (guess)
000001b: 00                                         ; local decl count
000001a: 01                                         ; FIXUP func body size
; function body 1
000001c: 00                                         ; func body size (guess)
000001d: 00                                         ; local decl count
000001c: 01                                         ; FIXUP func body size
; function body 2
000001e: 00                                         ; func body size (guess)
000001f: 00                                         ; local decl count
0000020: 0c                                         ; OPCODE_F64_CONST
0000021: 0000 0000 0000 0000                        ; f64 literal
000001e: 0a                                         ; FIXUP func body size
0000029: 05                                         ; WASM_BINARY_SECTION_FUNCTION_TABLE
000002a: 04                                         ; num function table entries
000002b: 00                                         ; function table entry
000002c: 00                                         ; function table entry
000002d: 01                                         ; function table entry
000002e: 02                                         ; function table entry
000002f: 06                                         ; WASM_BINARY_SECTION_END
;; dump
0000000: 0061 736d 0a00 0000 0103 0100 0102 0001  
0000010: 0200 040a 0300 0102 0b03 0100 0100 0a00  
0000020: 0c00 0000 0000 0000 0005 0400 0001 0206  
;;; STDOUT ;;)
