;;; FLAGS: -dv
(module
  (func
    (tableswitch (i32.const 0)
      (table (case 0) (case 1)) (br 0)
      (case (i32.const 1) (i32.const 2))  ;; expression list
      (case)  ;; fallthrough
      (case (i32.const 3)))))
(;; STDOUT ;;;
0000000: 0061 736d                                  ; WASM_BINARY_MAGIC
0000004: 0a00 0000                                  ; WASM_BINARY_VERSION
0000008: 01                                         ; WASM_BINARY_SECTION_SIGNATURES
0000009: 01                                         ; num signatures
; signature 0
000000a: 00                                         ; num params
000000b: 00                                         ; result_type
000000c: 02                                         ; WASM_BINARY_SECTION_FUNCTIONS
000000d: 01                                         ; num functions
; function 0
000000e: 00                                         ; func flags
000000f: 0000                                       ; func signature index
0000011: 0000                                       ; func body size
0000013: 08                                         ; OPCODE_TABLESWITCH
0000014: 0300                                       ; num cases
0000016: 0300                                       ; num targets
0000018: 0000                                       ; case index
000001a: 0100                                       ; case index
000001c: 0080                                       ; br depth
000001e: 0a                                         ; OPCODE_I32_CONST
000001f: 00                                         ; i32 literal
0000020: 01                                         ; OPCODE_BLOCK
0000021: 02                                         ; num expressions
0000022: 0a                                         ; OPCODE_I32_CONST
0000023: 01                                         ; i32 literal
0000024: 0a                                         ; OPCODE_I32_CONST
0000025: 02                                         ; i32 literal
0000026: 00                                         ; OPCODE_NOP for fallthrough
0000027: 0a                                         ; OPCODE_I32_CONST
0000028: 03                                         ; i32 literal
0000011: 1600                                       ; FIXUP func body size
0000029: 06                                         ; WASM_BINARY_SECTION_END
;; dump
0000000: 0061 736d 0a00 0000 0101 0000 0201 0000  
0000010: 0016 0008 0300 0300 0000 0100 0080 0a00  
0000020: 0102 0a01 0a02 000a 0306                 
;;; STDOUT ;;)
