;;; FLAGS: -dv
(module
  (type $t (func (param i32)))
  (func (type $t))
  (func (param i32 i64))
  (func (result f64) (f64.const 0))
  (table 0 0 1 2))
(;; STDOUT ;;;
0000000: 0061 736d                                  ; WASM_BINARY_MAGIC
0000004: 0a00 0000                                  ; WASM_BINARY_VERSION
; section "signatures"
0000008: 00                                         ; section size (guess)
0000009: 0a                                         ; string length
000000a: 7369 676e 6174 7572 6573                   ; section id: "signatures"
0000014: 03                                         ; num signatures
; signature 0
0000015: 01                                         ; num params
0000016: 00                                         ; result_type
0000017: 01                                         ; param type
; signature 1
0000018: 02                                         ; num params
0000019: 00                                         ; result_type
000001a: 01                                         ; param type
000001b: 02                                         ; param type
; signature 2
000001c: 00                                         ; num params
000001d: 04                                         ; result_type
0000008: 15                                         ; FIXUP section size
; section "function_signatures"
000001e: 00                                         ; section size (guess)
000001f: 13                                         ; string length
0000020: 6675 6e63 7469 6f6e 5f73 6967 6e61 7475  
0000030: 7265 73                                    ; section id: "function_signatures"
0000033: 03                                         ; num functions
0000034: 00                                         ; function 0 signature index
0000035: 01                                         ; function 1 signature index
0000036: 02                                         ; function 2 signature index
000001e: 18                                         ; FIXUP section size
; section "function_table"
0000037: 00                                         ; section size (guess)
0000038: 0e                                         ; string length
0000039: 6675 6e63 7469 6f6e 5f74 6162 6c65         ; section id: "function_table"
0000047: 04                                         ; num function table entries
0000048: 00                                         ; function table entry
0000049: 00                                         ; function table entry
000004a: 01                                         ; function table entry
000004b: 02                                         ; function table entry
0000037: 14                                         ; FIXUP section size
; section "function_bodies"
000004c: 00                                         ; section size (guess)
000004d: 0f                                         ; string length
000004e: 6675 6e63 7469 6f6e 5f62 6f64 6965 73      ; section id: "function_bodies"
000005d: 03                                         ; num functions
; function body 0
000005e: 00                                         ; func body size (guess)
000005f: 00                                         ; local decl count
000005e: 01                                         ; FIXUP func body size
; function body 1
0000060: 00                                         ; func body size (guess)
0000061: 00                                         ; local decl count
0000060: 01                                         ; FIXUP func body size
; function body 2
0000062: 00                                         ; func body size (guess)
0000063: 00                                         ; local decl count
0000064: 0c                                         ; OPCODE_F64_CONST
0000065: 0000 0000 0000 0000                        ; f64 literal
0000062: 0a                                         ; FIXUP func body size
000004c: 20                                         ; FIXUP section size
; section "end"
000006d: 00                                         ; section size (guess)
000006e: 03                                         ; string length
000006f: 656e 64                                    ; section id: "end"
000006d: 04                                         ; FIXUP section size
;; dump
0000000: 0061 736d 0a00 0000 150a 7369 676e 6174  
0000010: 7572 6573 0301 0001 0200 0102 0004 1813  
0000020: 6675 6e63 7469 6f6e 5f73 6967 6e61 7475  
0000030: 7265 7303 0001 0214 0e66 756e 6374 696f  
0000040: 6e5f 7461 626c 6504 0000 0102 200f 6675  
0000050: 6e63 7469 6f6e 5f62 6f64 6965 7303 0100  
0000060: 0100 0a00 0c00 0000 0000 0000 0004 0365  
0000070: 6e64                                     
;;; STDOUT ;;)
