;;; FLAGS: -dv
(module
  (type $t (func (param i32)))
  (func (type $t))
  (func (param i32 i64))
  (func (result f64) (f64.const 0))
  (table 0 0 1 2))
(;; STDOUT ;;;
0000000: 0061 736d                                  ; WASM_BINARY_MAGIC
0000004: 0a00 0000                                  ; WASM_BINARY_VERSION
0000008: 01                                         ; WASM_BINARY_SECTION_SIGNATURES
0000009: 03                                         ; num signatures
; signature 0
000000a: 01                                         ; num params
000000b: 00                                         ; result_type
000000c: 01                                         ; param type
; signature 1
000000d: 02                                         ; num params
000000e: 00                                         ; result_type
000000f: 01                                         ; param type
0000010: 02                                         ; param type
; signature 2
0000011: 00                                         ; num params
0000012: 04                                         ; result_type
0000013: 02                                         ; WASM_BINARY_SECTION_FUNCTIONS
0000014: 03                                         ; num functions
; function 0
0000015: 00                                         ; func flags
0000016: 0000                                       ; func signature index
0000018: 0000                                       ; func body size
0000018: 0000                                       ; FIXUP func body size
; function 1
000001a: 00                                         ; func flags
000001b: 0100                                       ; func signature index
000001d: 0000                                       ; func body size
000001d: 0000                                       ; FIXUP func body size
; function 2
000001f: 00                                         ; func flags
0000020: 0200                                       ; func signature index
0000022: 0000                                       ; func body size
0000024: 0c                                         ; OPCODE_F64_CONST
0000025: 0000 0000 0000 0000                        ; f64 literal
0000022: 0900                                       ; FIXUP func body size
000002d: 05                                         ; WASM_BINARY_SECTION_FUNCTION_TABLE
000002e: 04                                         ; num function table entries
000002f: 0000                                       ; function table entry
0000031: 0000                                       ; function table entry
0000033: 0100                                       ; function table entry
0000035: 0200                                       ; function table entry
0000037: 06                                         ; WASM_BINARY_SECTION_END
;; dump
0000000: 0061 736d 0a00 0000 0103 0100 0102 0001  
0000010: 0200 0402 0300 0000 0000 0001 0000 0000  
0000020: 0200 0900 0c00 0000 0000 0000 0005 0400  
0000030: 0000 0001 0002 0006                      
;;; STDOUT ;;)
