;;; FLAGS: -dv
(module
  (type $t (func (param i32)))
  (func (type $t))
  (func (param i32 i64))
  (func (result f64) (f64.const 0))
  (table 0 0 1 2))
(;; STDOUT ;;;
0000000: 0061 736d                                  ; WASM_BINARY_MAGIC
0000004: 0a00 0000                                  ; WASM_BINARY_VERSION
; section "signatures"
0000008: 00                                         ; section size (guess)
0000009: 0a                                         ; string length
000000a: 7369 676e 6174 7572 6573                   ; section id: "signatures"
0000014: 03                                         ; num signatures
; signature 0
0000015: 01                                         ; num params
0000016: 00                                         ; result_type
0000017: 01                                         ; param type
; signature 1
0000018: 02                                         ; num params
0000019: 00                                         ; result_type
000001a: 01                                         ; param type
000001b: 02                                         ; param type
; signature 2
000001c: 00                                         ; num params
000001d: 04                                         ; result_type
0000008: 15                                         ; FIXUP section size
; section "function_signatures"
000001e: 00                                         ; section size (guess)
000001f: 13                                         ; string length
0000020: 6675 6e63 7469 6f6e 5f73 6967 6e61 7475  
0000030: 7265 73                                    ; section id: "function_signatures"
0000033: 03                                         ; num functions
0000034: 00                                         ; function 0 signature index
0000035: 01                                         ; function 1 signature index
0000036: 02                                         ; function 2 signature index
000001e: 18                                         ; FIXUP section size
; section "function_bodies"
0000037: 00                                         ; section size (guess)
0000038: 0f                                         ; string length
0000039: 6675 6e63 7469 6f6e 5f62 6f64 6965 73      ; section id: "function_bodies"
0000048: 03                                         ; num functions
; function body 0
0000049: 00                                         ; func body size (guess)
000004a: 00                                         ; local decl count
0000049: 01                                         ; FIXUP func body size
; function body 1
000004b: 00                                         ; func body size (guess)
000004c: 00                                         ; local decl count
000004b: 01                                         ; FIXUP func body size
; function body 2
000004d: 00                                         ; func body size (guess)
000004e: 00                                         ; local decl count
000004f: 0c                                         ; OPCODE_F64_CONST
0000050: 0000 0000 0000 0000                        ; f64 literal
000004d: 0a                                         ; FIXUP func body size
0000037: 20                                         ; FIXUP section size
; section "function_table"
0000058: 00                                         ; section size (guess)
0000059: 0e                                         ; string length
000005a: 6675 6e63 7469 6f6e 5f74 6162 6c65         ; section id: "function_table"
0000068: 04                                         ; num function table entries
0000069: 00                                         ; function table entry
000006a: 00                                         ; function table entry
000006b: 01                                         ; function table entry
000006c: 02                                         ; function table entry
0000058: 14                                         ; FIXUP section size
; section "end"
000006d: 00                                         ; section size (guess)
000006e: 03                                         ; string length
000006f: 656e 64                                    ; section id: "end"
000006d: 04                                         ; FIXUP section size
;; dump
0000000: 0061 736d 0a00 0000 150a 7369 676e 6174  
0000010: 7572 6573 0301 0001 0200 0102 0004 1813  
0000020: 6675 6e63 7469 6f6e 5f73 6967 6e61 7475  
0000030: 7265 7303 0001 0220 0f66 756e 6374 696f  
0000040: 6e5f 626f 6469 6573 0301 0001 000a 000c  
0000050: 0000 0000 0000 0000 140e 6675 6e63 7469  
0000060: 6f6e 5f74 6162 6c65 0400 0001 0204 0365  
0000070: 6e64                                     
;;; STDOUT ;;)
