;;; TOOL: run-wasmdump
;;; FLAGS: -v
(module
  (func
    (local i32)
    (drop
      (tee_local 0 (i32.const 0)))))
(;; STDOUT ;;;
0000000: 0061 736d                                 ; WASM_BINARY_MAGIC
0000004: 0c00 0000                                 ; WASM_BINARY_VERSION
; section "TYPE" (1)
0000008: 01                                        ; section code
0000009: 00                                        ; section size (guess)
000000a: 01                                        ; num types
; type 0
000000b: 40                                        ; function form
000000c: 00                                        ; num params
000000d: 00                                        ; num results
0000009: 04                                        ; FIXUP section size
; section "FUNCTION" (3)
000000e: 03                                        ; section code
000000f: 00                                        ; section size (guess)
0000010: 01                                        ; num functions
0000011: 00                                        ; function 0 signature index
000000f: 02                                        ; FIXUP section size
; section "CODE" (10)
0000012: 0a                                        ; section code
0000013: 00                                        ; section size (guess)
0000014: 01                                        ; num functions
; function body 0
0000015: 00                                        ; func body size (guess)
0000016: 01                                        ; local decl count
0000017: 01                                        ; local type count
0000018: 01                                        ; WASM_TYPE_I32
0000019: 10                                        ; i32.const
000001a: 00                                        ; i32 literal
000001b: 19                                        ; tee_local
000001c: 00                                        ; local index
000001d: 0b                                        ; drop
000001e: 0f                                        ; end
0000015: 09                                        ; FIXUP func body size
0000013: 0b                                        ; FIXUP section size
func 0
 000019: 10 00                      | i32.const 0
 00001b: 19 00                      | tee_local 0
 00001d: 0b                         | drop
;;; STDOUT ;;)
