;;; TOOL: run-objdump
;;; ARGS0: -v --enable-exceptions
(module
  (func
    try $try1 (result i32)
      nop
      i32.const 7
    catch
      drop
      i32.const 8
    end
    drop))
(;; STDOUT ;;;
0000000: 0061 736d                                 ; WASM_BINARY_MAGIC
0000004: 0100 0000                                 ; WASM_BINARY_VERSION
; section "Type" (1)
0000008: 01                                        ; section code
0000009: 00                                        ; section size (guess)
000000a: 01                                        ; num types
; type 0
000000b: 60                                        ; func
000000c: 00                                        ; num params
000000d: 00                                        ; num results
0000009: 04                                        ; FIXUP section size
; section "Function" (3)
000000e: 03                                        ; section code
000000f: 00                                        ; section size (guess)
0000010: 01                                        ; num functions
0000011: 00                                        ; function 0 signature index
000000f: 02                                        ; FIXUP section size
; section "DataCount" (12)
0000012: 0c                                        ; section code
0000013: 00                                        ; section size (guess)
0000014: 00                                        ; data count
0000013: 01                                        ; FIXUP section size
; section "Code" (10)
0000015: 0a                                        ; section code
0000016: 00                                        ; section size (guess)
0000017: 01                                        ; num functions
; function body 0
0000018: 00                                        ; func body size (guess)
0000019: 00                                        ; local decl count
000001a: 06                                        ; try
000001b: 7f                                        ; i32
000001c: 01                                        ; nop
000001d: 41                                        ; i32.const
000001e: 07                                        ; i32 literal
000001f: 07                                        ; catch
0000020: 1a                                        ; drop
0000021: 41                                        ; i32.const
0000022: 08                                        ; i32 literal
0000023: 0b                                        ; end
0000024: 1a                                        ; drop
0000025: 0b                                        ; end
0000018: 0d                                        ; FIXUP func body size
0000016: 0f                                        ; FIXUP section size
; move data: [15, 26) -> [12, 23)
; truncate to 35 (0x23)

try.wasm:	file format wasm 0x1

Code Disassembly:

000016 func[0]:
 000017: 06 7f                      | try i32
 000019: 01                         |   nop
 00001a: 41 07                      |   i32.const 7
 00001c: 07                         | catch
 00001d: 1a                         |   drop
 00001e: 41 08                      |   i32.const 8
 000020: 0b                         | end
 000021: 1a                         | drop
 000022: 0b                         | end
;;; STDOUT ;;)
