;;; TOOL: run-objdump
;;; ARGS0: -v --enable-exceptions
(module
  (func
    try $try1 (result i32)
      nop
      i32.const 7
    catch
      drop
      i32.const 8
    end
    drop))
(;; STDOUT ;;;
0000000: 0061 736d                                 ; WASM_BINARY_MAGIC
0000004: 0100 0000                                 ; WASM_BINARY_VERSION
; section "Type" (1)
0000008: 01                                        ; section code
0000009: 00                                        ; section size (guess)
000000a: 01                                        ; num types
; type 0
000000b: 60                                        ; func
000000c: 00                                        ; num params
000000d: 00                                        ; num results
0000009: 04                                        ; FIXUP section size
; section "Function" (3)
000000e: 03                                        ; section code
000000f: 00                                        ; section size (guess)
0000010: 01                                        ; num functions
0000011: 00                                        ; function 0 signature index
000000f: 02                                        ; FIXUP section size
; section "Code" (10)
0000012: 0a                                        ; section code
0000013: 00                                        ; section size (guess)
0000014: 01                                        ; num functions
; function body 0
0000015: 00                                        ; func body size (guess)
0000016: 00                                        ; local decl count
0000017: 06                                        ; try
0000018: 7f                                        ; i32
0000019: 01                                        ; nop
000001a: 41                                        ; i32.const
000001b: 07                                        ; i32 literal
000001c: 07                                        ; catch
000001d: 1a                                        ; drop
000001e: 41                                        ; i32.const
000001f: 08                                        ; i32 literal
0000020: 0b                                        ; end
0000021: 1a                                        ; drop
0000022: 0b                                        ; end
0000015: 0d                                        ; FIXUP func body size
0000013: 0f                                        ; FIXUP section size

try.wasm:	file format wasm 0x1

Code Disassembly:

000015 func[0]:
 000017: 06 7f                      | try i32
 000019: 01                         |   nop
 00001a: 41 07                      |   i32.const 7
 00001c: 07                         | catch
 00001d: 1a                         |   drop
 00001e: 41 08                      |   i32.const 8
 000020: 0b                         | end
 000021: 1a                         | drop
 000022: 0b                         | end
;;; STDOUT ;;)
