;;; TOOL: run-objdump
;;; ARGS0: -v --enable-exceptions
(module
  (tag $e (param i32))
  (func
    try
      nop
    end
    try $try1 (result i32)
      nop
      i32.const 7
    catch $e
      drop
      i32.const 8
    end
    drop))
(;; STDERR ;;;
0000000: 0061 736d                                 ; WASM_BINARY_MAGIC
0000004: 0100 0000                                 ; WASM_BINARY_VERSION
; section "Type" (1)
0000008: 01                                        ; section code
0000009: 00                                        ; section size (guess)
000000a: 02                                        ; num types
; func type 0
000000b: 60                                        ; func
000000c: 01                                        ; num params
000000d: 7f                                        ; i32
000000e: 00                                        ; num results
; func type 1
000000f: 60                                        ; func
0000010: 00                                        ; num params
0000011: 00                                        ; num results
0000009: 08                                        ; FIXUP section size
; section "Function" (3)
0000012: 03                                        ; section code
0000013: 00                                        ; section size (guess)
0000014: 01                                        ; num functions
0000015: 01                                        ; function 0 signature index
0000013: 02                                        ; FIXUP section size
; section "Tag" (13)
0000016: 0d                                        ; section code
0000017: 00                                        ; section size (guess)
0000018: 01                                        ; tag count
; tag 0
0000019: 00                                        ; tag attribute
000001a: 00                                        ; tag signature index
0000017: 03                                        ; FIXUP section size
; section "DataCount" (12)
000001b: 0c                                        ; section code
000001c: 00                                        ; section size (guess)
000001d: 00                                        ; data count
000001c: 01                                        ; FIXUP section size
; section "Code" (10)
000001e: 0a                                        ; section code
000001f: 00                                        ; section size (guess)
0000020: 01                                        ; num functions
; function body 0
0000021: 00                                        ; func body size (guess)
0000022: 00                                        ; local decl count
0000023: 06                                        ; try
0000024: 40                                        ; void
0000025: 01                                        ; nop
0000026: 0b                                        ; end
0000027: 06                                        ; try
0000028: 7f                                        ; i32
0000029: 01                                        ; nop
000002a: 41                                        ; i32.const
000002b: 07                                        ; i32 literal
000002c: 07                                        ; catch
000002d: 00                                        ; catch tag
000002e: 1a                                        ; drop
000002f: 41                                        ; i32.const
0000030: 08                                        ; i32 literal
0000031: 0b                                        ; end
0000032: 1a                                        ; drop
0000033: 0b                                        ; end
0000021: 12                                        ; FIXUP func body size
000001f: 14                                        ; FIXUP section size
; move data: [1e, 34) -> [1b, 31)
; truncate to 49 (0x31)
;;; STDERR ;;)
(;; STDOUT ;;;

try.wasm:	file format wasm 0x1

Code Disassembly:

00001f func[0]:
 000020: 06 40                      | try
 000022: 01                         |   nop
 000023: 0b                         | end
 000024: 06 7f                      | try i32
 000026: 01                         |   nop
 000027: 41 07                      |   i32.const 7
 000029: 07 00                      | catch 0
 00002b: 1a                         |   drop
 00002c: 41 08                      |   i32.const 8
 00002e: 0b                         | end
 00002f: 1a                         | drop
 000030: 0b                         | end
;;; STDOUT ;;)
