;;; TOOL: run-wasmdump
;;; FLAGS: -v
(module
  (func
    (drop
      (i32.eqz
        (i32.clz
          (i32.ctz
            (i32.popcnt (i32.const 0))))))

    (drop
      (i64.clz
        (i64.ctz
          (i64.popcnt (i64.const 0)))))

    (drop
      (f32.neg
        (f32.abs
          (f32.sqrt
            (f32.ceil
              (f32.floor
                (f32.trunc
                  (f32.nearest (f32.const 0)))))))))

    (drop
      (f64.neg
        (f64.abs
          (f64.sqrt
            (f64.ceil
              (f64.floor
                (f64.trunc
                  (f64.nearest (f64.const 0)))))))))))
(;; STDOUT ;;;
0000000: 0061 736d                                 ; WASM_BINARY_MAGIC
0000004: 0c00 0000                                 ; WASM_BINARY_VERSION
; section "TYPE" (1)
0000008: 01                                        ; section code
0000009: 00                                        ; section size (guess)
000000a: 01                                        ; num types
; type 0
000000b: 40                                        ; function form
000000c: 00                                        ; num params
000000d: 00                                        ; num results
0000009: 04                                        ; FIXUP section size
; section "FUNCTION" (3)
000000e: 03                                        ; section code
000000f: 00                                        ; section size (guess)
0000010: 01                                        ; num functions
0000011: 00                                        ; function 0 signature index
000000f: 02                                        ; FIXUP section size
; section "CODE" (10)
0000012: 0a                                        ; section code
0000013: 00                                        ; section size (guess)
0000014: 01                                        ; num functions
; function body 0
0000015: 00                                        ; func body size (guess)
0000016: 00                                        ; local decl count
0000017: 10                                        ; i32.const
0000018: 00                                        ; i32 literal
0000019: 59                                        ; i32.popcnt
000001a: 58                                        ; i32.ctz
000001b: 57                                        ; i32.clz
000001c: 5a                                        ; i32.eqz
000001d: 0b                                        ; drop
000001e: 11                                        ; i64.const
000001f: 00                                        ; i64 literal
0000020: 74                                        ; i64.popcnt
0000021: 73                                        ; i64.ctz
0000022: 72                                        ; i64.clz
0000023: 0b                                        ; drop
0000024: 13                                        ; f32.const
0000025: 0000 0000                                 ; f32 literal
0000029: 81                                        ; f32.nearest
000002a: 80                                        ; f32.trunc
000002b: 7f                                        ; f32.floor
000002c: 7e                                        ; f32.ceil
000002d: 82                                        ; f32.sqrt
000002e: 7b                                        ; f32.abs
000002f: 7c                                        ; f32.neg
0000030: 0b                                        ; drop
0000031: 12                                        ; f64.const
0000032: 0000 0000 0000 0000                       ; f64 literal
000003a: 95                                        ; f64.nearest
000003b: 94                                        ; f64.trunc
000003c: 93                                        ; f64.floor
000003d: 92                                        ; f64.ceil
000003e: 96                                        ; f64.sqrt
000003f: 8f                                        ; f64.abs
0000040: 90                                        ; f64.neg
0000041: 0b                                        ; drop
0000042: 0f                                        ; end
0000015: 2d                                        ; FIXUP func body size
0000013: 2f                                        ; FIXUP section size
func 0
 000017: 10 00                      | i32.const 0
 000019: 59                         | i32.popcnt
 00001a: 58                         | i32.ctz
 00001b: 57                         | i32.clz
 00001c: 5a                         | i32.eqz
 00001d: 0b                         | drop
 00001e: 11 00                      | i64.const 0
 000020: 74                         | i64.popcnt
 000021: 73                         | i64.ctz
 000022: 72                         | i64.clz
 000023: 0b                         | drop
 000024: 13 00 00 00 00             | f32.const 0
 000029: 81                         | f32.nearest
 00002a: 80                         | f32.trunc
 00002b: 7f                         | f32.floor
 00002c: 7e                         | f32.ceil
 00002d: 82                         | f32.sqrt
 00002e: 7b                         | f32.abs
 00002f: 7c                         | f32.neg
 000030: 0b                         | drop
 000031: 12 00 00 00 00 00 00 00 00 | f64.const 0
 00003a: 95                         | f64.nearest
 00003b: 94                         | f64.trunc
 00003c: 93                         | f64.floor
 00003d: 92                         | f64.ceil
 00003e: 96                         | f64.sqrt
 00003f: 8f                         | f64.abs
 000040: 90                         | f64.neg
 000041: 0b                         | drop
;;; STDOUT ;;)
