;;; FLAGS: -dv
(module
  (func
    (i32.not
      (i32.clz
        (i32.ctz
          (i32.popcnt (i32.const 0)))))

    (i64.clz
      (i64.ctz
        (i64.popcnt (i64.const 0))))

    (f32.neg
      (f32.abs
        (f32.sqrt
          (f32.ceil
            (f32.floor
              (f32.trunc
                (f32.nearest (f32.const 0))))))))

    (f64.neg
      (f64.abs
        (f64.sqrt
          (f64.ceil
            (f64.floor
              (f64.trunc
                (f64.nearest (f64.const 0))))))))))
(;; STDOUT ;;;
0000000: 01                                         ; WASM_BINARY_SECTION_SIGNATURES
0000001: 01                                         ; num signatures
; signature 0
0000002: 00                                         ; num params
0000003: 00                                         ; result_type
0000004: 02                                         ; WASM_BINARY_SECTION_FUNCTIONS
0000005: 01                                         ; num functions
; function 0
0000006: 00                                         ; func flags
0000007: 0000                                       ; func signature index
0000009: 0000                                       ; func body size
000000b: 5a                                         ; OPCODE_BOOL_NOT
000000c: 57                                         ; OPCODE_I32_CLZ
000000d: 58                                         ; OPCODE_I32_CTZ
000000e: 59                                         ; OPCODE_I32_POPCNT
000000f: 09                                         ; OPCODE_I8_CONST
0000010: 00                                         ; u8 literal
0000011: 72                                         ; OPCODE_I64_CLZ
0000012: 73                                         ; OPCODE_I64_CTZ
0000013: 74                                         ; OPCODE_I64_POPCNT
0000014: 0b                                         ; OPCODE_I64_CONST
0000015: 0000 0000 0000 0000                        ; u64 literal
000001d: 7c                                         ; OPCODE_F32_NEG
000001e: 7b                                         ; OPCODE_F32_ABS
000001f: 82                                         ; OPCODE_F32_SQRT
0000020: 7e                                         ; OPCODE_F32_CEIL
0000021: 7f                                         ; OPCODE_F32_FLOOR
0000022: 80                                         ; OPCODE_F32_TRUNC
0000023: 81                                         ; OPCODE_F32_NEAREST_INT
0000024: 0d                                         ; OPCODE_F32_CONST
0000025: 0000 0000                                  ; f32 literal
0000029: 90                                         ; OPCODE_F64_NEG
000002a: 8f                                         ; OPCODE_F64_ABS
000002b: 96                                         ; OPCODE_F64_SQRT
000002c: 92                                         ; OPCODE_F64_CEIL
000002d: 93                                         ; OPCODE_F64_FLOOR
000002e: 94                                         ; OPCODE_F64_TRUNC
000002f: 95                                         ; OPCODE_F64_NEAREST_INT
0000030: 0c                                         ; OPCODE_F64_CONST
0000031: 0000 0000 0000 0000                        ; f64 literal
0000009: 2e00                                       ; FIXUP func body size
0000039: 06                                         ; WASM_BINARY_SECTION_END
;; dump
0000000: 0101 0000 0201 0000 002e 005a 5758 5909  
0000010: 0072 7374 0b00 0000 0000 0000 007c 7b82  
0000020: 7e7f 8081 0d00 0000 0090 8f96 9293 9495  
0000030: 0c00 0000 0000 0000 0006                 
;;; STDOUT ;;)
