;;; FLAGS: -dv
(module
  (func
    (i32.not
      (i32.clz
        (i32.ctz
          (i32.popcnt (i32.const 0)))))

    (i64.clz
      (i64.ctz
        (i64.popcnt (i64.const 0))))

    (f32.neg
      (f32.abs
        (f32.sqrt
          (f32.ceil
            (f32.floor
              (f32.trunc
                (f32.nearest (f32.const 0))))))))

    (f64.neg
      (f64.abs
        (f64.sqrt
          (f64.ceil
            (f64.floor
              (f64.trunc
                (f64.nearest (f64.const 0))))))))))
(;; STDOUT ;;;
0000000: 0061 736d                                  ; WASM_BINARY_MAGIC
0000004: 0a00 0000                                  ; WASM_BINARY_VERSION
0000008: 01                                         ; WASM_BINARY_SECTION_SIGNATURES
0000009: 01                                         ; num signatures
; signature 0
000000a: 00                                         ; num params
000000b: 00                                         ; result_type
000000c: 02                                         ; WASM_BINARY_SECTION_FUNCTIONS
000000d: 01                                         ; num functions
; function 0
000000e: 00                                         ; func flags
000000f: 0000                                       ; func signature index
0000011: 0000                                       ; func body size
0000013: 00                                         ; local decl count
0000013: 00                                         ; local decl count
0000014: 5a                                         ; OPCODE_BOOL_NOT
0000015: 57                                         ; OPCODE_I32_CLZ
0000016: 58                                         ; OPCODE_I32_CTZ
0000017: 59                                         ; OPCODE_I32_POPCNT
0000018: 0a                                         ; OPCODE_I32_CONST
0000019: 00                                         ; i32 literal
000001a: 72                                         ; OPCODE_I64_CLZ
000001b: 73                                         ; OPCODE_I64_CTZ
000001c: 74                                         ; OPCODE_I64_POPCNT
000001d: 0b                                         ; OPCODE_I64_CONST
000001e: 00                                         ; i64 literal
000001f: 7c                                         ; OPCODE_F32_NEG
0000020: 7b                                         ; OPCODE_F32_ABS
0000021: 82                                         ; OPCODE_F32_SQRT
0000022: 7e                                         ; OPCODE_F32_CEIL
0000023: 7f                                         ; OPCODE_F32_FLOOR
0000024: 80                                         ; OPCODE_F32_TRUNC
0000025: 81                                         ; OPCODE_F32_NEAREST_INT
0000026: 0d                                         ; OPCODE_F32_CONST
0000027: 0000 0000                                  ; f32 literal
000002b: 90                                         ; OPCODE_F64_NEG
000002c: 8f                                         ; OPCODE_F64_ABS
000002d: 96                                         ; OPCODE_F64_SQRT
000002e: 92                                         ; OPCODE_F64_CEIL
000002f: 93                                         ; OPCODE_F64_FLOOR
0000030: 94                                         ; OPCODE_F64_TRUNC
0000031: 95                                         ; OPCODE_F64_NEAREST_INT
0000032: 0c                                         ; OPCODE_F64_CONST
0000033: 0000 0000 0000 0000                        ; f64 literal
0000011: 2800                                       ; FIXUP func body size
000003b: 06                                         ; WASM_BINARY_SECTION_END
;; dump
0000000: 0061 736d 0a00 0000 0101 0000 0201 0000  
0000010: 0028 0000 5a57 5859 0a00 7273 740b 007c  
0000020: 7b82 7e7f 8081 0d00 0000 0090 8f96 9293  
0000030: 9495 0c00 0000 0000 0000 0006            
;;; STDOUT ;;)
