;;; FLAGS: -dv
(module
  (func
    (drop
      (i32.eqz
        (i32.clz
          (i32.ctz
            (i32.popcnt (i32.const 0))))))

    (drop
      (i64.clz
        (i64.ctz
          (i64.popcnt (i64.const 0)))))

    (drop
      (f32.neg
        (f32.abs
          (f32.sqrt
            (f32.ceil
              (f32.floor
                (f32.trunc
                  (f32.nearest (f32.const 0)))))))))

    (drop
      (f64.neg
        (f64.abs
          (f64.sqrt
            (f64.ceil
              (f64.floor
                (f64.trunc
                  (f64.nearest (f64.const 0)))))))))))
(;; STDOUT ;;;
0000000: 0061 736d                                  ; WASM_BINARY_MAGIC
0000004: 0c00 0000                                  ; WASM_BINARY_VERSION
; section "TYPE" (1)
0000008: 01                                         ; section code
0000009: 00                                         ; section size (guess)
000000a: 01                                         ; num types
; type 0
000000b: 40                                         ; function form
000000c: 00                                         ; num params
000000d: 00                                         ; num results
0000009: 04                                         ; FIXUP section size
; section "FUNCTION" (3)
000000e: 03                                         ; section code
000000f: 00                                         ; section size (guess)
0000010: 01                                         ; num functions
0000011: 00                                         ; function 0 signature index
000000f: 02                                         ; FIXUP section size
; section "CODE" (10)
0000012: 0a                                         ; section code
0000013: 00                                         ; section size (guess)
0000014: 01                                         ; num functions
; function body 0
0000015: 00                                         ; func body size (guess)
0000016: 00                                         ; local decl count
0000017: 10                                         ; OPCODE_I32_CONST
0000018: 00                                         ; i32 literal
0000019: 59                                         ; OPCODE_I32_POPCNT
000001a: 58                                         ; OPCODE_I32_CTZ
000001b: 57                                         ; OPCODE_I32_CLZ
000001c: 5a                                         ; OPCODE_I32_EQZ
000001d: 0b                                         ; OPCODE_DROP
000001e: 11                                         ; OPCODE_I64_CONST
000001f: 00                                         ; i64 literal
0000020: 74                                         ; OPCODE_I64_POPCNT
0000021: 73                                         ; OPCODE_I64_CTZ
0000022: 72                                         ; OPCODE_I64_CLZ
0000023: 0b                                         ; OPCODE_DROP
0000024: 13                                         ; OPCODE_F32_CONST
0000025: 0000 0000                                  ; f32 literal
0000029: 81                                         ; OPCODE_F32_NEAREST
000002a: 80                                         ; OPCODE_F32_TRUNC
000002b: 7f                                         ; OPCODE_F32_FLOOR
000002c: 7e                                         ; OPCODE_F32_CEIL
000002d: 82                                         ; OPCODE_F32_SQRT
000002e: 7b                                         ; OPCODE_F32_ABS
000002f: 7c                                         ; OPCODE_F32_NEG
0000030: 0b                                         ; OPCODE_DROP
0000031: 12                                         ; OPCODE_F64_CONST
0000032: 0000 0000 0000 0000                        ; f64 literal
000003a: 95                                         ; OPCODE_F64_NEAREST
000003b: 94                                         ; OPCODE_F64_TRUNC
000003c: 93                                         ; OPCODE_F64_FLOOR
000003d: 92                                         ; OPCODE_F64_CEIL
000003e: 96                                         ; OPCODE_F64_SQRT
000003f: 8f                                         ; OPCODE_F64_ABS
0000040: 90                                         ; OPCODE_F64_NEG
0000041: 0b                                         ; OPCODE_DROP
0000015: 2c                                         ; FIXUP func body size
0000013: 2e                                         ; FIXUP section size
;; dump
0000000: 0061 736d 0c00 0000 0104 0140 0000 0302  
0000010: 0100 0a2e 012c 0010 0059 5857 5a0b 1100  
0000020: 7473 720b 1300 0000 0081 807f 7e82 7b7c  
0000030: 0b12 0000 0000 0000 0000 9594 9392 968f  
0000040: 900b                                     
;;; STDOUT ;;)
