;;; FLAGS: -dv
(module
  (func
    (i32.not
      (i32.clz
        (i32.ctz
          (i32.popcnt (i32.const 0)))))

    (i64.clz
      (i64.ctz
        (i64.popcnt (i64.const 0))))

    (f32.neg
      (f32.abs
        (f32.sqrt
          (f32.ceil
            (f32.floor
              (f32.trunc
                (f32.nearest (f32.const 0))))))))

    (f64.neg
      (f64.abs
        (f64.sqrt
          (f64.ceil
            (f64.floor
              (f64.trunc
                (f64.nearest (f64.const 0))))))))))
(;; STDOUT ;;;
0000000: 00                                         ; WASM_SECTION_MEMORY
0000001: 00                                         ; min mem size log 2
0000002: 00                                         ; max mem size log 2
0000003: 01                                         ; export mem
0000004: 01                                         ; WASM_SECTION_SIGNATURES
0000005: 01                                         ; num signatures
; signature 0
0000006: 00                                         ; num params
0000007: 00                                         ; result_type
0000008: 02                                         ; WASM_SECTION_FUNCTIONS
0000009: 01                                         ; num functions
; function 0
000000a: 01                                         ; func flags
000000b: 0000                                       ; func signature index
000000d: 0000 0000                                  ; func name offset
0000011: 0000                                       ; func body size
0000013: 5a                                         ; OPCODE_BOOL_NOT
0000014: 57                                         ; OPCODE_I32_CLZ
0000015: 58                                         ; OPCODE_I32_CTZ
0000016: 59                                         ; OPCODE_I32_POPCNT
0000017: 09                                         ; OPCODE_I8_CONST
0000018: 00                                         ; u8 literal
0000019: 72                                         ; OPCODE_I64_CLZ
000001a: 73                                         ; OPCODE_I64_CTZ
000001b: 74                                         ; OPCODE_I64_POPCNT
000001c: 0b                                         ; OPCODE_I64_CONST
000001d: 0000 0000 0000 0000                        ; u64 literal
0000025: 7c                                         ; OPCODE_F32_NEG
0000026: 7b                                         ; OPCODE_F32_ABS
0000027: 82                                         ; OPCODE_F32_SQRT
0000028: 7e                                         ; OPCODE_F32_CEIL
0000029: 7f                                         ; OPCODE_F32_FLOOR
000002a: 80                                         ; OPCODE_F32_TRUNC
000002b: 81                                         ; OPCODE_F32_NEAREST_INT
000002c: 0d                                         ; OPCODE_F32_CONST
000002d: 0000 0000                                  ; f32 literal
0000031: 90                                         ; OPCODE_F64_NEG
0000032: 8f                                         ; OPCODE_F64_ABS
0000033: 96                                         ; OPCODE_F64_SQRT
0000034: 92                                         ; OPCODE_F64_CEIL
0000035: 93                                         ; OPCODE_F64_FLOOR
0000036: 94                                         ; OPCODE_F64_TRUNC
0000037: 95                                         ; OPCODE_F64_NEAREST_INT
0000038: 0c                                         ; OPCODE_F64_CONST
0000039: 0000 0000 0000 0000                        ; f64 literal
0000011: 2e00                                       ; FIXUP func body size
0000041: 06                                         ; WASM_SECTION_END
;;; STDOUT ;;)
