;;; FLAGS: -dv
(module
  (func
    (drop
      (i32.eqz
        (i32.clz
          (i32.ctz
            (i32.popcnt (i32.const 0))))))

    (drop
      (i64.clz
        (i64.ctz
          (i64.popcnt (i64.const 0)))))

    (drop
      (f32.neg
        (f32.abs
          (f32.sqrt
            (f32.ceil
              (f32.floor
                (f32.trunc
                  (f32.nearest (f32.const 0)))))))))

    (drop
      (f64.neg
        (f64.abs
          (f64.sqrt
            (f64.ceil
              (f64.floor
                (f64.trunc
                  (f64.nearest (f64.const 0)))))))))))
(;; STDOUT ;;;
0000000: 0061 736d                                  ; WASM_BINARY_MAGIC
0000004: 0c00 0000                                  ; WASM_BINARY_VERSION
; section "type"
0000008: 04                                         ; string length
0000009: 7479 7065                                  ; section id: "type"
000000d: 00                                         ; section size (guess)
000000e: 01                                         ; num types
; type 0
000000f: 40                                         ; function form
0000010: 00                                         ; num params
0000011: 00                                         ; num results
000000d: 04                                         ; FIXUP section size
; section "function"
0000012: 08                                         ; string length
0000013: 6675 6e63 7469 6f6e                        ; section id: "function"
000001b: 00                                         ; section size (guess)
000001c: 01                                         ; num functions
000001d: 00                                         ; function 0 signature index
000001b: 02                                         ; FIXUP section size
; section "code"
000001e: 04                                         ; string length
000001f: 636f 6465                                  ; section id: "code"
0000023: 00                                         ; section size (guess)
0000024: 01                                         ; num functions
; function body 0
0000025: 00                                         ; func body size (guess)
0000026: 00                                         ; local decl count
0000027: 10                                         ; OPCODE_I32_CONST
0000028: 00                                         ; i32 literal
0000029: 59                                         ; OPCODE_I32_POPCNT
000002a: 58                                         ; OPCODE_I32_CTZ
000002b: 57                                         ; OPCODE_I32_CLZ
000002c: 5a                                         ; OPCODE_I32_EQZ
000002d: 0b                                         ; OPCODE_DROP
000002e: 11                                         ; OPCODE_I64_CONST
000002f: 00                                         ; i64 literal
0000030: 74                                         ; OPCODE_I64_POPCNT
0000031: 73                                         ; OPCODE_I64_CTZ
0000032: 72                                         ; OPCODE_I64_CLZ
0000033: 0b                                         ; OPCODE_DROP
0000034: 13                                         ; OPCODE_F32_CONST
0000035: 0000 0000                                  ; f32 literal
0000039: 81                                         ; OPCODE_F32_NEAREST
000003a: 80                                         ; OPCODE_F32_TRUNC
000003b: 7f                                         ; OPCODE_F32_FLOOR
000003c: 7e                                         ; OPCODE_F32_CEIL
000003d: 82                                         ; OPCODE_F32_SQRT
000003e: 7b                                         ; OPCODE_F32_ABS
000003f: 7c                                         ; OPCODE_F32_NEG
0000040: 0b                                         ; OPCODE_DROP
0000041: 12                                         ; OPCODE_F64_CONST
0000042: 0000 0000 0000 0000                        ; f64 literal
000004a: 95                                         ; OPCODE_F64_NEAREST
000004b: 94                                         ; OPCODE_F64_TRUNC
000004c: 93                                         ; OPCODE_F64_FLOOR
000004d: 92                                         ; OPCODE_F64_CEIL
000004e: 96                                         ; OPCODE_F64_SQRT
000004f: 8f                                         ; OPCODE_F64_ABS
0000050: 90                                         ; OPCODE_F64_NEG
0000051: 0b                                         ; OPCODE_DROP
0000025: 2c                                         ; FIXUP func body size
0000023: 2e                                         ; FIXUP section size
;; dump
0000000: 0061 736d 0c00 0000 0474 7970 6504 0140  
0000010: 0000 0866 756e 6374 696f 6e02 0100 0463  
0000020: 6f64 652e 012c 0010 0059 5857 5a0b 1100  
0000030: 7473 720b 1300 0000 0081 807f 7e82 7b7c  
0000040: 0b12 0000 0000 0000 0000 9594 9392 968f  
0000050: 900b                                     
;;; STDOUT ;;)
